
Barometr.elf:     file format elf32-avr

Sections:
Idx Name          Size      VMA       LMA       File off  Algn
  0 .text         00000bc0  00000000  00000000  00000094  2**1
                  CONTENTS, ALLOC, LOAD, READONLY, CODE
  1 .data         00000058  00800060  00000bc0  00000c54  2**0
                  CONTENTS, ALLOC, LOAD, DATA
  2 .bss          00000060  008000b8  008000b8  00000cac  2**0
                  ALLOC

Disassembly of section .text:

00000000 <__vectors>:
   0:	12 c0       	rjmp	.+36     	; 0x26 <__ctors_end>
   2:	2c c0       	rjmp	.+88     	; 0x5c <__bad_interrupt>
   4:	2b c0       	rjmp	.+86     	; 0x5c <__bad_interrupt>
   6:	2a c0       	rjmp	.+84     	; 0x5c <__bad_interrupt>
   8:	29 c0       	rjmp	.+82     	; 0x5c <__bad_interrupt>
   a:	28 c0       	rjmp	.+80     	; 0x5c <__bad_interrupt>
   c:	27 c0       	rjmp	.+78     	; 0x5c <__bad_interrupt>
   e:	26 c0       	rjmp	.+76     	; 0x5c <__bad_interrupt>
  10:	25 c0       	rjmp	.+74     	; 0x5c <__bad_interrupt>
  12:	24 c0       	rjmp	.+72     	; 0x5c <__bad_interrupt>
  14:	23 c0       	rjmp	.+70     	; 0x5c <__bad_interrupt>
  16:	93 c0       	rjmp	.+294    	; 0x13e <__vector_11>
  18:	56 c0       	rjmp	.+172    	; 0xc6 <__vector_12>
  1a:	2d c0       	rjmp	.+90     	; 0x76 <__vector_13>
  1c:	1f c0       	rjmp	.+62     	; 0x5c <__bad_interrupt>
  1e:	1e c0       	rjmp	.+60     	; 0x5c <__bad_interrupt>
  20:	1d c0       	rjmp	.+58     	; 0x5c <__bad_interrupt>
  22:	1c c0       	rjmp	.+56     	; 0x5c <__bad_interrupt>
  24:	1b c0       	rjmp	.+54     	; 0x5c <__bad_interrupt>

00000026 <__ctors_end>:
  26:	11 24       	eor	r1, r1
  28:	1f be       	out	0x3f, r1	; 63
  2a:	cf e5       	ldi	r28, 0x5F	; 95
  2c:	d4 e0       	ldi	r29, 0x04	; 4
  2e:	de bf       	out	0x3e, r29	; 62
  30:	cd bf       	out	0x3d, r28	; 61

00000032 <__do_copy_data>:
  32:	10 e0       	ldi	r17, 0x00	; 0
  34:	a0 e6       	ldi	r26, 0x60	; 96
  36:	b0 e0       	ldi	r27, 0x00	; 0
  38:	e0 ec       	ldi	r30, 0xC0	; 192
  3a:	fb e0       	ldi	r31, 0x0B	; 11
  3c:	02 c0       	rjmp	.+4      	; 0x42 <.do_copy_data_start>

0000003e <.do_copy_data_loop>:
  3e:	05 90       	lpm	r0, Z+
  40:	0d 92       	st	X+, r0

00000042 <.do_copy_data_start>:
  42:	a8 3b       	cpi	r26, 0xB8	; 184
  44:	b1 07       	cpc	r27, r17
  46:	d9 f7       	brne	.-10     	; 0x3e <.do_copy_data_loop>

00000048 <__do_clear_bss>:
  48:	11 e0       	ldi	r17, 0x01	; 1
  4a:	a8 eb       	ldi	r26, 0xB8	; 184
  4c:	b0 e0       	ldi	r27, 0x00	; 0
  4e:	01 c0       	rjmp	.+2      	; 0x52 <.do_clear_bss_start>

00000050 <.do_clear_bss_loop>:
  50:	1d 92       	st	X+, r1

00000052 <.do_clear_bss_start>:
  52:	a8 31       	cpi	r26, 0x18	; 24
  54:	b1 07       	cpc	r27, r17
  56:	e1 f7       	brne	.-8      	; 0x50 <.do_clear_bss_loop>
  58:	c8 d4       	rcall	.+2448   	; 0x9ea <main>
  5a:	b0 c5       	rjmp	.+2912   	; 0xbbc <_exit>

0000005c <__bad_interrupt>:
  5c:	d1 cf       	rjmp	.-94     	; 0x0 <__vectors>

0000005e <USART_Init>:
  5e:	90 bd       	out	0x20, r25	; 32
  60:	89 b9       	out	0x09, r24	; 9
  62:	88 e1       	ldi	r24, 0x18	; 24
  64:	8a b9       	out	0x0a, r24	; 10
  66:	86 e8       	ldi	r24, 0x86	; 134
  68:	80 bd       	out	0x20, r24	; 32
  6a:	8a 9a       	sbi	0x11, 2	; 17
  6c:	92 9a       	sbi	0x12, 2	; 18
  6e:	8a b1       	in	r24, 0x0a	; 10
  70:	88 6d       	ori	r24, 0xD8	; 216
  72:	8a b9       	out	0x0a, r24	; 10
  74:	08 95       	ret

00000076 <__vector_13>:
  76:	1f 92       	push	r1
  78:	0f 92       	push	r0
  7a:	0f b6       	in	r0, 0x3f	; 63
  7c:	0f 92       	push	r0
  7e:	11 24       	eor	r1, r1
  80:	92 98       	cbi	0x12, 2	; 18
  82:	0f 90       	pop	r0
  84:	0f be       	out	0x3f, r0	; 63
  86:	0f 90       	pop	r0
  88:	1f 90       	pop	r1
  8a:	18 95       	reti

0000008c <uart_putc>:
  8c:	28 2f       	mov	r18, r24
  8e:	90 91 b9 00 	lds	r25, 0x00B9
  92:	9f 5f       	subi	r25, 0xFF	; 255
  94:	9f 70       	andi	r25, 0x0F	; 15
  96:	80 91 ba 00 	lds	r24, 0x00BA
  9a:	98 17       	cp	r25, r24
  9c:	e1 f3       	breq	.-8      	; 0x96 <uart_putc+0xa>
  9e:	e9 2f       	mov	r30, r25
  a0:	f0 e0       	ldi	r31, 0x00	; 0
  a2:	e5 54       	subi	r30, 0x45	; 69
  a4:	ff 4f       	sbci	r31, 0xFF	; 255
  a6:	20 83       	st	Z, r18
  a8:	90 93 b9 00 	sts	0x00B9, r25
  ac:	55 9a       	sbi	0x0a, 5	; 10
  ae:	08 95       	ret

000000b0 <uart_puts>:
  b0:	cf 93       	push	r28
  b2:	df 93       	push	r29
  b4:	ec 01       	movw	r28, r24
  b6:	01 c0       	rjmp	.+2      	; 0xba <uart_puts+0xa>
  b8:	e9 df       	rcall	.-46     	; 0x8c <uart_putc>
  ba:	89 91       	ld	r24, Y+
  bc:	88 23       	and	r24, r24
  be:	e1 f7       	brne	.-8      	; 0xb8 <uart_puts+0x8>
  c0:	df 91       	pop	r29
  c2:	cf 91       	pop	r28
  c4:	08 95       	ret

000000c6 <__vector_12>:
  c6:	1f 92       	push	r1
  c8:	0f 92       	push	r0
  ca:	0f b6       	in	r0, 0x3f	; 63
  cc:	0f 92       	push	r0
  ce:	11 24       	eor	r1, r1
  d0:	8f 93       	push	r24
  d2:	9f 93       	push	r25
  d4:	ef 93       	push	r30
  d6:	ff 93       	push	r31
  d8:	90 91 b9 00 	lds	r25, 0x00B9
  dc:	80 91 ba 00 	lds	r24, 0x00BA
  e0:	98 17       	cp	r25, r24
  e2:	71 f0       	breq	.+28     	; 0x100 <__vector_12+0x3a>
  e4:	80 91 ba 00 	lds	r24, 0x00BA
  e8:	8f 5f       	subi	r24, 0xFF	; 255
  ea:	8f 70       	andi	r24, 0x0F	; 15
  ec:	80 93 ba 00 	sts	0x00BA, r24
  f0:	e0 91 ba 00 	lds	r30, 0x00BA
  f4:	f0 e0       	ldi	r31, 0x00	; 0
  f6:	e5 54       	subi	r30, 0x45	; 69
  f8:	ff 4f       	sbci	r31, 0xFF	; 255
  fa:	80 81       	ld	r24, Z
  fc:	8c b9       	out	0x0c, r24	; 12
  fe:	01 c0       	rjmp	.+2      	; 0x102 <__vector_12+0x3c>
 100:	55 98       	cbi	0x0a, 5	; 10
 102:	ff 91       	pop	r31
 104:	ef 91       	pop	r30
 106:	9f 91       	pop	r25
 108:	8f 91       	pop	r24
 10a:	0f 90       	pop	r0
 10c:	0f be       	out	0x3f, r0	; 63
 10e:	0f 90       	pop	r0
 110:	1f 90       	pop	r1
 112:	18 95       	reti

00000114 <uart_getc>:
 114:	90 91 cb 00 	lds	r25, 0x00CB
 118:	80 91 cc 00 	lds	r24, 0x00CC
 11c:	98 17       	cp	r25, r24
 11e:	11 f4       	brne	.+4      	; 0x124 <uart_getc+0x10>
 120:	80 e0       	ldi	r24, 0x00	; 0
 122:	08 95       	ret
 124:	80 91 cc 00 	lds	r24, 0x00CC
 128:	8f 5f       	subi	r24, 0xFF	; 255
 12a:	8f 71       	andi	r24, 0x1F	; 31
 12c:	80 93 cc 00 	sts	0x00CC, r24
 130:	e0 91 cc 00 	lds	r30, 0x00CC
 134:	f0 e0       	ldi	r31, 0x00	; 0
 136:	e3 53       	subi	r30, 0x33	; 51
 138:	ff 4f       	sbci	r31, 0xFF	; 255
 13a:	80 81       	ld	r24, Z
 13c:	08 95       	ret

0000013e <__vector_11>:
 13e:	1f 92       	push	r1
 140:	0f 92       	push	r0
 142:	0f b6       	in	r0, 0x3f	; 63
 144:	0f 92       	push	r0
 146:	11 24       	eor	r1, r1
 148:	8f 93       	push	r24
 14a:	9f 93       	push	r25
 14c:	ef 93       	push	r30
 14e:	ff 93       	push	r31
 150:	9c b1       	in	r25, 0x0c	; 12
 152:	e0 91 cb 00 	lds	r30, 0x00CB
 156:	ef 5f       	subi	r30, 0xFF	; 255
 158:	ef 71       	andi	r30, 0x1F	; 31
 15a:	80 91 cc 00 	lds	r24, 0x00CC
 15e:	e8 17       	cp	r30, r24
 160:	31 f0       	breq	.+12     	; 0x16e <__vector_11+0x30>
 162:	e0 93 cb 00 	sts	0x00CB, r30
 166:	f0 e0       	ldi	r31, 0x00	; 0
 168:	e3 53       	subi	r30, 0x33	; 51
 16a:	ff 4f       	sbci	r31, 0xFF	; 255
 16c:	90 83       	st	Z, r25
 16e:	ff 91       	pop	r31
 170:	ef 91       	pop	r30
 172:	9f 91       	pop	r25
 174:	8f 91       	pop	r24
 176:	0f 90       	pop	r0
 178:	0f be       	out	0x3f, r0	; 63
 17a:	0f 90       	pop	r0
 17c:	1f 90       	pop	r1
 17e:	18 95       	reti

00000180 <uart_putint>:
 180:	0f 93       	push	r16
 182:	1f 93       	push	r17
 184:	df 93       	push	r29
 186:	cf 93       	push	r28
 188:	cd b7       	in	r28, 0x3d	; 61
 18a:	de b7       	in	r29, 0x3e	; 62
 18c:	61 97       	sbiw	r28, 0x11	; 17
 18e:	0f b6       	in	r0, 0x3f	; 63
 190:	f8 94       	cli
 192:	de bf       	out	0x3e, r29	; 62
 194:	0f be       	out	0x3f, r0	; 63
 196:	cd bf       	out	0x3d, r28	; 61
 198:	ab 01       	movw	r20, r22
 19a:	8e 01       	movw	r16, r28
 19c:	0f 5f       	subi	r16, 0xFF	; 255
 19e:	1f 4f       	sbci	r17, 0xFF	; 255
 1a0:	b8 01       	movw	r22, r16
 1a2:	c9 d4       	rcall	.+2450   	; 0xb36 <itoa>
 1a4:	c8 01       	movw	r24, r16
 1a6:	84 df       	rcall	.-248    	; 0xb0 <uart_puts>
 1a8:	61 96       	adiw	r28, 0x11	; 17
 1aa:	0f b6       	in	r0, 0x3f	; 63
 1ac:	f8 94       	cli
 1ae:	de bf       	out	0x3e, r29	; 62
 1b0:	0f be       	out	0x3f, r0	; 63
 1b2:	cd bf       	out	0x3d, r28	; 61
 1b4:	cf 91       	pop	r28
 1b6:	df 91       	pop	r29
 1b8:	1f 91       	pop	r17
 1ba:	0f 91       	pop	r16
 1bc:	08 95       	ret

000001be <BMP180_SendParam>:
 1be:	08 95       	ret

000001c0 <BMP180_SendUPUT>:
 1c0:	08 95       	ret

000001c2 <BMP180_GetUP>:
 1c2:	1f 93       	push	r17
 1c4:	df 93       	push	r29
 1c6:	cf 93       	push	r28
 1c8:	00 d0       	rcall	.+0      	; 0x1ca <BMP180_GetUP+0x8>
 1ca:	0f 92       	push	r0
 1cc:	cd b7       	in	r28, 0x3d	; 61
 1ce:	de b7       	in	r29, 0x3e	; 62
 1d0:	10 91 ed 00 	lds	r17, 0x00ED
 1d4:	12 95       	swap	r17
 1d6:	16 95       	lsr	r17
 1d8:	16 95       	lsr	r17
 1da:	13 70       	andi	r17, 0x03	; 3
 1dc:	8e ee       	ldi	r24, 0xEE	; 238
 1de:	66 ef       	ldi	r22, 0xF6	; 246
 1e0:	43 e0       	ldi	r20, 0x03	; 3
 1e2:	9e 01       	movw	r18, r28
 1e4:	2f 5f       	subi	r18, 0xFF	; 255
 1e6:	3f 4f       	sbci	r19, 0xFF	; 255
 1e8:	4f d3       	rcall	.+1694   	; 0x888 <TWI_ReadBytes>
 1ea:	29 81       	ldd	r18, Y+1	; 0x01
 1ec:	30 e0       	ldi	r19, 0x00	; 0
 1ee:	40 e0       	ldi	r20, 0x00	; 0
 1f0:	50 e0       	ldi	r21, 0x00	; 0
 1f2:	a9 01       	movw	r20, r18
 1f4:	33 27       	eor	r19, r19
 1f6:	22 27       	eor	r18, r18
 1f8:	8a 81       	ldd	r24, Y+2	; 0x02
 1fa:	90 e0       	ldi	r25, 0x00	; 0
 1fc:	a0 e0       	ldi	r26, 0x00	; 0
 1fe:	b0 e0       	ldi	r27, 0x00	; 0
 200:	ba 2f       	mov	r27, r26
 202:	a9 2f       	mov	r26, r25
 204:	98 2f       	mov	r25, r24
 206:	88 27       	eor	r24, r24
 208:	28 2b       	or	r18, r24
 20a:	39 2b       	or	r19, r25
 20c:	4a 2b       	or	r20, r26
 20e:	5b 2b       	or	r21, r27
 210:	8b 81       	ldd	r24, Y+3	; 0x03
 212:	90 e0       	ldi	r25, 0x00	; 0
 214:	a0 e0       	ldi	r26, 0x00	; 0
 216:	b0 e0       	ldi	r27, 0x00	; 0
 218:	28 2b       	or	r18, r24
 21a:	39 2b       	or	r19, r25
 21c:	4a 2b       	or	r20, r26
 21e:	5b 2b       	or	r21, r27
 220:	88 e0       	ldi	r24, 0x08	; 8
 222:	90 e0       	ldi	r25, 0x00	; 0
 224:	81 1b       	sub	r24, r17
 226:	91 09       	sbc	r25, r1
 228:	04 c0       	rjmp	.+8      	; 0x232 <BMP180_GetUP+0x70>
 22a:	55 95       	asr	r21
 22c:	47 95       	ror	r20
 22e:	37 95       	ror	r19
 230:	27 95       	ror	r18
 232:	8a 95       	dec	r24
 234:	d2 f7       	brpl	.-12     	; 0x22a <BMP180_GetUP+0x68>
 236:	b9 01       	movw	r22, r18
 238:	ca 01       	movw	r24, r20
 23a:	0f 90       	pop	r0
 23c:	0f 90       	pop	r0
 23e:	0f 90       	pop	r0
 240:	cf 91       	pop	r28
 242:	df 91       	pop	r29
 244:	1f 91       	pop	r17
 246:	08 95       	ret

00000248 <BMP180_GetPress>:
 248:	2f 92       	push	r2
 24a:	3f 92       	push	r3
 24c:	4f 92       	push	r4
 24e:	5f 92       	push	r5
 250:	6f 92       	push	r6
 252:	7f 92       	push	r7
 254:	8f 92       	push	r8
 256:	9f 92       	push	r9
 258:	af 92       	push	r10
 25a:	bf 92       	push	r11
 25c:	cf 92       	push	r12
 25e:	df 92       	push	r13
 260:	ef 92       	push	r14
 262:	ff 92       	push	r15
 264:	0f 93       	push	r16
 266:	1f 93       	push	r17
 268:	df 93       	push	r29
 26a:	cf 93       	push	r28
 26c:	00 d0       	rcall	.+0      	; 0x26e <BMP180_GetPress+0x26>
 26e:	00 d0       	rcall	.+0      	; 0x270 <BMP180_GetPress+0x28>
 270:	0f 92       	push	r0
 272:	cd b7       	in	r28, 0x3d	; 61
 274:	de b7       	in	r29, 0x3e	; 62
 276:	80 91 ed 00 	lds	r24, 0x00ED
 27a:	82 95       	swap	r24
 27c:	86 95       	lsr	r24
 27e:	86 95       	lsr	r24
 280:	83 70       	andi	r24, 0x03	; 3
 282:	8d 83       	std	Y+5, r24	; 0x05
 284:	9e df       	rcall	.-196    	; 0x1c2 <BMP180_GetUP>
 286:	1b 01       	movw	r2, r22
 288:	2c 01       	movw	r4, r24
 28a:	60 93 0c 01 	sts	0x010C, r22
 28e:	70 93 0d 01 	sts	0x010D, r23
 292:	80 93 0e 01 	sts	0x010E, r24
 296:	90 93 0f 01 	sts	0x010F, r25
 29a:	a0 90 04 01 	lds	r10, 0x0104
 29e:	b0 90 05 01 	lds	r11, 0x0105
 2a2:	c0 90 06 01 	lds	r12, 0x0106
 2a6:	d0 90 07 01 	lds	r13, 0x0107
 2aa:	80 e6       	ldi	r24, 0x60	; 96
 2ac:	90 ef       	ldi	r25, 0xF0	; 240
 2ae:	af ef       	ldi	r26, 0xFF	; 255
 2b0:	bf ef       	ldi	r27, 0xFF	; 255
 2b2:	a8 0e       	add	r10, r24
 2b4:	b9 1e       	adc	r11, r25
 2b6:	ca 1e       	adc	r12, r26
 2b8:	db 1e       	adc	r13, r27
 2ba:	c6 01       	movw	r24, r12
 2bc:	b5 01       	movw	r22, r10
 2be:	a6 01       	movw	r20, r12
 2c0:	95 01       	movw	r18, r10
 2c2:	dd d3       	rcall	.+1978   	; 0xa7e <__mulsi3>
 2c4:	3b 01       	movw	r6, r22
 2c6:	4c 01       	movw	r8, r24
 2c8:	ac e0       	ldi	r26, 0x0C	; 12
 2ca:	95 94       	asr	r9
 2cc:	87 94       	ror	r8
 2ce:	77 94       	ror	r7
 2d0:	67 94       	ror	r6
 2d2:	aa 95       	dec	r26
 2d4:	d1 f7       	brne	.-12     	; 0x2ca <BMP180_GetPress+0x82>
 2d6:	60 91 f2 00 	lds	r22, 0x00F2
 2da:	70 91 f3 00 	lds	r23, 0x00F3
 2de:	88 27       	eor	r24, r24
 2e0:	77 fd       	sbrc	r23, 7
 2e2:	80 95       	com	r24
 2e4:	98 2f       	mov	r25, r24
 2e6:	cb d3       	rcall	.+1942   	; 0xa7e <__mulsi3>
 2e8:	7b 01       	movw	r14, r22
 2ea:	8c 01       	movw	r16, r24
 2ec:	fd e0       	ldi	r31, 0x0D	; 13
 2ee:	15 95       	asr	r17
 2f0:	07 95       	ror	r16
 2f2:	f7 94       	ror	r15
 2f4:	e7 94       	ror	r14
 2f6:	fa 95       	dec	r31
 2f8:	d1 f7       	brne	.-12     	; 0x2ee <BMP180_GetPress+0xa6>
 2fa:	82 e0       	ldi	r24, 0x02	; 2
 2fc:	90 e0       	ldi	r25, 0x00	; 0
 2fe:	a0 e0       	ldi	r26, 0x00	; 0
 300:	b0 e0       	ldi	r27, 0x00	; 0
 302:	e8 0e       	add	r14, r24
 304:	f9 1e       	adc	r15, r25
 306:	0a 1f       	adc	r16, r26
 308:	1b 1f       	adc	r17, r27
 30a:	20 91 fa 00 	lds	r18, 0x00FA
 30e:	30 91 fb 00 	lds	r19, 0x00FB
 312:	44 27       	eor	r20, r20
 314:	37 fd       	sbrc	r19, 7
 316:	40 95       	com	r20
 318:	54 2f       	mov	r21, r20
 31a:	c4 01       	movw	r24, r8
 31c:	b3 01       	movw	r22, r6
 31e:	af d3       	rcall	.+1886   	; 0xa7e <__mulsi3>
 320:	bc 01       	movw	r22, r24
 322:	99 27       	eor	r25, r25
 324:	77 fd       	sbrc	r23, 7
 326:	90 95       	com	r25
 328:	89 2f       	mov	r24, r25
 32a:	e6 0e       	add	r14, r22
 32c:	f7 1e       	adc	r15, r23
 32e:	08 1f       	adc	r16, r24
 330:	19 1f       	adc	r17, r25
 332:	62 e0       	ldi	r22, 0x02	; 2
 334:	15 95       	asr	r17
 336:	07 95       	ror	r16
 338:	f7 94       	ror	r15
 33a:	e7 94       	ror	r14
 33c:	6a 95       	dec	r22
 33e:	d1 f7       	brne	.-12     	; 0x334 <BMP180_GetPress+0xec>
 340:	80 e0       	ldi	r24, 0x00	; 0
 342:	90 e8       	ldi	r25, 0x80	; 128
 344:	a0 e0       	ldi	r26, 0x00	; 0
 346:	b0 e0       	ldi	r27, 0x00	; 0
 348:	e8 0e       	add	r14, r24
 34a:	f9 1e       	adc	r15, r25
 34c:	0a 1f       	adc	r16, r26
 34e:	1b 1f       	adc	r17, r27
 350:	20 91 f4 00 	lds	r18, 0x00F4
 354:	30 91 f5 00 	lds	r19, 0x00F5
 358:	40 e0       	ldi	r20, 0x00	; 0
 35a:	50 e0       	ldi	r21, 0x00	; 0
 35c:	c8 01       	movw	r24, r16
 35e:	b7 01       	movw	r22, r14
 360:	8e d3       	rcall	.+1820   	; 0xa7e <__mulsi3>
 362:	dc 01       	movw	r26, r24
 364:	cb 01       	movw	r24, r22
 366:	5f e0       	ldi	r21, 0x0F	; 15
 368:	b6 95       	lsr	r27
 36a:	a7 95       	ror	r26
 36c:	97 95       	ror	r25
 36e:	87 95       	ror	r24
 370:	5a 95       	dec	r21
 372:	d1 f7       	brne	.-12     	; 0x368 <BMP180_GetPress+0x120>
 374:	89 83       	std	Y+1, r24	; 0x01
 376:	9a 83       	std	Y+2, r25	; 0x02
 378:	ab 83       	std	Y+3, r26	; 0x03
 37a:	bc 83       	std	Y+4, r27	; 0x04
 37c:	60 91 f0 00 	lds	r22, 0x00F0
 380:	70 91 f1 00 	lds	r23, 0x00F1
 384:	88 27       	eor	r24, r24
 386:	77 fd       	sbrc	r23, 7
 388:	80 95       	com	r24
 38a:	98 2f       	mov	r25, r24
 38c:	a6 01       	movw	r20, r12
 38e:	95 01       	movw	r18, r10
 390:	76 d3       	rcall	.+1772   	; 0xa7e <__mulsi3>
 392:	7b 01       	movw	r14, r22
 394:	8c 01       	movw	r16, r24
 396:	4b e0       	ldi	r20, 0x0B	; 11
 398:	15 95       	asr	r17
 39a:	07 95       	ror	r16
 39c:	f7 94       	ror	r15
 39e:	e7 94       	ror	r14
 3a0:	4a 95       	dec	r20
 3a2:	d1 f7       	brne	.-12     	; 0x398 <BMP180_GetPress+0x150>
 3a4:	80 91 ee 00 	lds	r24, 0x00EE
 3a8:	90 91 ef 00 	lds	r25, 0x00EF
 3ac:	aa 27       	eor	r26, r26
 3ae:	97 fd       	sbrc	r25, 7
 3b0:	a0 95       	com	r26
 3b2:	ba 2f       	mov	r27, r26
 3b4:	32 e0       	ldi	r19, 0x02	; 2
 3b6:	88 0f       	add	r24, r24
 3b8:	99 1f       	adc	r25, r25
 3ba:	aa 1f       	adc	r26, r26
 3bc:	bb 1f       	adc	r27, r27
 3be:	3a 95       	dec	r19
 3c0:	d1 f7       	brne	.-12     	; 0x3b6 <BMP180_GetPress+0x16e>
 3c2:	e8 0e       	add	r14, r24
 3c4:	f9 1e       	adc	r15, r25
 3c6:	0a 1f       	adc	r16, r26
 3c8:	1b 1f       	adc	r17, r27
 3ca:	20 91 fc 00 	lds	r18, 0x00FC
 3ce:	30 91 fd 00 	lds	r19, 0x00FD
 3d2:	44 27       	eor	r20, r20
 3d4:	37 fd       	sbrc	r19, 7
 3d6:	40 95       	com	r20
 3d8:	54 2f       	mov	r21, r20
 3da:	c4 01       	movw	r24, r8
 3dc:	b3 01       	movw	r22, r6
 3de:	4f d3       	rcall	.+1694   	; 0xa7e <__mulsi3>
 3e0:	2b e0       	ldi	r18, 0x0B	; 11
 3e2:	95 95       	asr	r25
 3e4:	87 95       	ror	r24
 3e6:	77 95       	ror	r23
 3e8:	67 95       	ror	r22
 3ea:	2a 95       	dec	r18
 3ec:	d1 f7       	brne	.-12     	; 0x3e2 <BMP180_GetPress+0x19a>
 3ee:	e6 0e       	add	r14, r22
 3f0:	f7 1e       	adc	r15, r23
 3f2:	08 1f       	adc	r16, r24
 3f4:	19 1f       	adc	r17, r25
 3f6:	0d 80       	ldd	r0, Y+5	; 0x05
 3f8:	04 c0       	rjmp	.+8      	; 0x402 <BMP180_GetPress+0x1ba>
 3fa:	ee 0c       	add	r14, r14
 3fc:	ff 1c       	adc	r15, r15
 3fe:	00 1f       	adc	r16, r16
 400:	11 1f       	adc	r17, r17
 402:	0a 94       	dec	r0
 404:	d2 f7       	brpl	.-12     	; 0x3fa <BMP180_GetPress+0x1b2>
 406:	82 e0       	ldi	r24, 0x02	; 2
 408:	90 e0       	ldi	r25, 0x00	; 0
 40a:	a0 e0       	ldi	r26, 0x00	; 0
 40c:	b0 e0       	ldi	r27, 0x00	; 0
 40e:	e8 0e       	add	r14, r24
 410:	f9 1e       	adc	r15, r25
 412:	0a 1f       	adc	r16, r26
 414:	1b 1f       	adc	r17, r27
 416:	82 e0       	ldi	r24, 0x02	; 2
 418:	15 95       	asr	r17
 41a:	07 95       	ror	r16
 41c:	f7 94       	ror	r15
 41e:	e7 94       	ror	r14
 420:	8a 95       	dec	r24
 422:	d1 f7       	brne	.-12     	; 0x418 <BMP180_GetPress+0x1d0>
 424:	2e 18       	sub	r2, r14
 426:	3f 08       	sbc	r3, r15
 428:	40 0a       	sbc	r4, r16
 42a:	51 0a       	sbc	r5, r17
 42c:	20 e5       	ldi	r18, 0x50	; 80
 42e:	33 ec       	ldi	r19, 0xC3	; 195
 430:	40 e0       	ldi	r20, 0x00	; 0
 432:	50 e0       	ldi	r21, 0x00	; 0
 434:	0d 80       	ldd	r0, Y+5	; 0x05
 436:	04 c0       	rjmp	.+8      	; 0x440 <BMP180_GetPress+0x1f8>
 438:	56 95       	lsr	r21
 43a:	47 95       	ror	r20
 43c:	37 95       	ror	r19
 43e:	27 95       	ror	r18
 440:	0a 94       	dec	r0
 442:	d2 f7       	brpl	.-12     	; 0x438 <BMP180_GetPress+0x1f0>
 444:	c2 01       	movw	r24, r4
 446:	b1 01       	movw	r22, r2
 448:	1a d3       	rcall	.+1588   	; 0xa7e <__mulsi3>
 44a:	97 fd       	sbrc	r25, 7
 44c:	0e c0       	rjmp	.+28     	; 0x46a <__stack+0xb>
 44e:	66 0f       	add	r22, r22
 450:	77 1f       	adc	r23, r23
 452:	88 1f       	adc	r24, r24
 454:	99 1f       	adc	r25, r25
 456:	29 81       	ldd	r18, Y+1	; 0x01
 458:	3a 81       	ldd	r19, Y+2	; 0x02
 45a:	4b 81       	ldd	r20, Y+3	; 0x03
 45c:	5c 81       	ldd	r21, Y+4	; 0x04
 45e:	2e d3       	rcall	.+1628   	; 0xabc <__udivmodsi4>
 460:	c9 01       	movw	r24, r18
 462:	da 01       	movw	r26, r20
 464:	3c 01       	movw	r6, r24
 466:	4d 01       	movw	r8, r26
 468:	0b c0       	rjmp	.+22     	; 0x480 <__stack+0x21>
 46a:	29 81       	ldd	r18, Y+1	; 0x01
 46c:	3a 81       	ldd	r19, Y+2	; 0x02
 46e:	4b 81       	ldd	r20, Y+3	; 0x03
 470:	5c 81       	ldd	r21, Y+4	; 0x04
 472:	24 d3       	rcall	.+1608   	; 0xabc <__udivmodsi4>
 474:	39 01       	movw	r6, r18
 476:	4a 01       	movw	r8, r20
 478:	66 0c       	add	r6, r6
 47a:	77 1c       	adc	r7, r7
 47c:	88 1c       	adc	r8, r8
 47e:	99 1c       	adc	r9, r9
 480:	dd 24       	eor	r13, r13
 482:	97 fc       	sbrc	r9, 7
 484:	da 94       	dec	r13
 486:	c9 2c       	mov	r12, r9
 488:	b8 2c       	mov	r11, r8
 48a:	a7 2c       	mov	r10, r7
 48c:	c4 01       	movw	r24, r8
 48e:	b3 01       	movw	r22, r6
 490:	23 e4       	ldi	r18, 0x43	; 67
 492:	33 ee       	ldi	r19, 0xE3	; 227
 494:	4f ef       	ldi	r20, 0xFF	; 255
 496:	5f ef       	ldi	r21, 0xFF	; 255
 498:	f2 d2       	rcall	.+1508   	; 0xa7e <__mulsi3>
 49a:	7c 01       	movw	r14, r24
 49c:	11 27       	eor	r17, r17
 49e:	f7 fc       	sbrc	r15, 7
 4a0:	10 95       	com	r17
 4a2:	01 2f       	mov	r16, r17
 4a4:	8f ec       	ldi	r24, 0xCF	; 207
 4a6:	9e e0       	ldi	r25, 0x0E	; 14
 4a8:	a0 e0       	ldi	r26, 0x00	; 0
 4aa:	b0 e0       	ldi	r27, 0x00	; 0
 4ac:	e8 0e       	add	r14, r24
 4ae:	f9 1e       	adc	r15, r25
 4b0:	0a 1f       	adc	r16, r26
 4b2:	1b 1f       	adc	r17, r27
 4b4:	c6 01       	movw	r24, r12
 4b6:	b5 01       	movw	r22, r10
 4b8:	a6 01       	movw	r20, r12
 4ba:	95 01       	movw	r18, r10
 4bc:	e0 d2       	rcall	.+1472   	; 0xa7e <__mulsi3>
 4be:	2e ed       	ldi	r18, 0xDE	; 222
 4c0:	3b e0       	ldi	r19, 0x0B	; 11
 4c2:	40 e0       	ldi	r20, 0x00	; 0
 4c4:	50 e0       	ldi	r21, 0x00	; 0
 4c6:	db d2       	rcall	.+1462   	; 0xa7e <__mulsi3>
 4c8:	bc 01       	movw	r22, r24
 4ca:	99 27       	eor	r25, r25
 4cc:	77 fd       	sbrc	r23, 7
 4ce:	90 95       	com	r25
 4d0:	89 2f       	mov	r24, r25
 4d2:	e6 0e       	add	r14, r22
 4d4:	f7 1e       	adc	r15, r23
 4d6:	08 1f       	adc	r16, r24
 4d8:	19 1f       	adc	r17, r25
 4da:	e4 e0       	ldi	r30, 0x04	; 4
 4dc:	15 95       	asr	r17
 4de:	07 95       	ror	r16
 4e0:	f7 94       	ror	r15
 4e2:	e7 94       	ror	r14
 4e4:	ea 95       	dec	r30
 4e6:	d1 f7       	brne	.-12     	; 0x4dc <__stack+0x7d>
 4e8:	e6 0c       	add	r14, r6
 4ea:	f7 1c       	adc	r15, r7
 4ec:	08 1d       	adc	r16, r8
 4ee:	19 1d       	adc	r17, r9
 4f0:	b7 01       	movw	r22, r14
 4f2:	c8 01       	movw	r24, r16
 4f4:	0f 90       	pop	r0
 4f6:	0f 90       	pop	r0
 4f8:	0f 90       	pop	r0
 4fa:	0f 90       	pop	r0
 4fc:	0f 90       	pop	r0
 4fe:	cf 91       	pop	r28
 500:	df 91       	pop	r29
 502:	1f 91       	pop	r17
 504:	0f 91       	pop	r16
 506:	ff 90       	pop	r15
 508:	ef 90       	pop	r14
 50a:	df 90       	pop	r13
 50c:	cf 90       	pop	r12
 50e:	bf 90       	pop	r11
 510:	af 90       	pop	r10
 512:	9f 90       	pop	r9
 514:	8f 90       	pop	r8
 516:	7f 90       	pop	r7
 518:	6f 90       	pop	r6
 51a:	5f 90       	pop	r5
 51c:	4f 90       	pop	r4
 51e:	3f 90       	pop	r3
 520:	2f 90       	pop	r2
 522:	08 95       	ret

00000524 <BMP180_GetUT>:
 524:	df 93       	push	r29
 526:	cf 93       	push	r28
 528:	00 d0       	rcall	.+0      	; 0x52a <BMP180_GetUT+0x6>
 52a:	cd b7       	in	r28, 0x3d	; 61
 52c:	de b7       	in	r29, 0x3e	; 62
 52e:	8e ee       	ldi	r24, 0xEE	; 238
 530:	66 ef       	ldi	r22, 0xF6	; 246
 532:	42 e0       	ldi	r20, 0x02	; 2
 534:	9e 01       	movw	r18, r28
 536:	2f 5f       	subi	r18, 0xFF	; 255
 538:	3f 4f       	sbci	r19, 0xFF	; 255
 53a:	a6 d1       	rcall	.+844    	; 0x888 <TWI_ReadBytes>
 53c:	89 81       	ldd	r24, Y+1	; 0x01
 53e:	90 e0       	ldi	r25, 0x00	; 0
 540:	a0 e0       	ldi	r26, 0x00	; 0
 542:	b0 e0       	ldi	r27, 0x00	; 0
 544:	ba 2f       	mov	r27, r26
 546:	a9 2f       	mov	r26, r25
 548:	98 2f       	mov	r25, r24
 54a:	88 27       	eor	r24, r24
 54c:	2a 81       	ldd	r18, Y+2	; 0x02
 54e:	30 e0       	ldi	r19, 0x00	; 0
 550:	40 e0       	ldi	r20, 0x00	; 0
 552:	50 e0       	ldi	r21, 0x00	; 0
 554:	82 2b       	or	r24, r18
 556:	93 2b       	or	r25, r19
 558:	a4 2b       	or	r26, r20
 55a:	b5 2b       	or	r27, r21
 55c:	80 93 08 01 	sts	0x0108, r24
 560:	90 93 09 01 	sts	0x0109, r25
 564:	a0 93 0a 01 	sts	0x010A, r26
 568:	b0 93 0b 01 	sts	0x010B, r27
 56c:	60 e0       	ldi	r22, 0x00	; 0
 56e:	70 e0       	ldi	r23, 0x00	; 0
 570:	80 e0       	ldi	r24, 0x00	; 0
 572:	90 e0       	ldi	r25, 0x00	; 0
 574:	0f 90       	pop	r0
 576:	0f 90       	pop	r0
 578:	cf 91       	pop	r28
 57a:	df 91       	pop	r29
 57c:	08 95       	ret

0000057e <BMP180_GetTemp>:
 57e:	ef 92       	push	r14
 580:	ff 92       	push	r15
 582:	0f 93       	push	r16
 584:	1f 93       	push	r17
 586:	ce df       	rcall	.-100    	; 0x524 <BMP180_GetUT>
 588:	60 93 08 01 	sts	0x0108, r22
 58c:	70 93 09 01 	sts	0x0109, r23
 590:	80 93 0a 01 	sts	0x010A, r24
 594:	90 93 0b 01 	sts	0x010B, r25
 598:	20 91 f8 00 	lds	r18, 0x00F8
 59c:	30 91 f9 00 	lds	r19, 0x00F9
 5a0:	40 e0       	ldi	r20, 0x00	; 0
 5a2:	50 e0       	ldi	r21, 0x00	; 0
 5a4:	62 1b       	sub	r22, r18
 5a6:	73 0b       	sbc	r23, r19
 5a8:	84 0b       	sbc	r24, r20
 5aa:	95 0b       	sbc	r25, r21
 5ac:	20 91 f6 00 	lds	r18, 0x00F6
 5b0:	30 91 f7 00 	lds	r19, 0x00F7
 5b4:	40 e0       	ldi	r20, 0x00	; 0
 5b6:	50 e0       	ldi	r21, 0x00	; 0
 5b8:	62 d2       	rcall	.+1220   	; 0xa7e <__mulsi3>
 5ba:	7b 01       	movw	r14, r22
 5bc:	8c 01       	movw	r16, r24
 5be:	ff e0       	ldi	r31, 0x0F	; 15
 5c0:	15 95       	asr	r17
 5c2:	07 95       	ror	r16
 5c4:	f7 94       	ror	r15
 5c6:	e7 94       	ror	r14
 5c8:	fa 95       	dec	r31
 5ca:	d1 f7       	brne	.-12     	; 0x5c0 <BMP180_GetTemp+0x42>
 5cc:	60 91 00 01 	lds	r22, 0x0100
 5d0:	70 91 01 01 	lds	r23, 0x0101
 5d4:	88 27       	eor	r24, r24
 5d6:	77 fd       	sbrc	r23, 7
 5d8:	80 95       	com	r24
 5da:	98 2f       	mov	r25, r24
 5dc:	eb e0       	ldi	r30, 0x0B	; 11
 5de:	66 0f       	add	r22, r22
 5e0:	77 1f       	adc	r23, r23
 5e2:	88 1f       	adc	r24, r24
 5e4:	99 1f       	adc	r25, r25
 5e6:	ea 95       	dec	r30
 5e8:	d1 f7       	brne	.-12     	; 0x5de <BMP180_GetTemp+0x60>
 5ea:	20 91 02 01 	lds	r18, 0x0102
 5ee:	30 91 03 01 	lds	r19, 0x0103
 5f2:	44 27       	eor	r20, r20
 5f4:	37 fd       	sbrc	r19, 7
 5f6:	40 95       	com	r20
 5f8:	54 2f       	mov	r21, r20
 5fa:	2e 0d       	add	r18, r14
 5fc:	3f 1d       	adc	r19, r15
 5fe:	40 1f       	adc	r20, r16
 600:	51 1f       	adc	r21, r17
 602:	7e d2       	rcall	.+1276   	; 0xb00 <__divmodsi4>
 604:	2e 0d       	add	r18, r14
 606:	3f 1d       	adc	r19, r15
 608:	40 1f       	adc	r20, r16
 60a:	51 1f       	adc	r21, r17
 60c:	20 93 04 01 	sts	0x0104, r18
 610:	30 93 05 01 	sts	0x0105, r19
 614:	40 93 06 01 	sts	0x0106, r20
 618:	50 93 07 01 	sts	0x0107, r21
 61c:	28 5f       	subi	r18, 0xF8	; 248
 61e:	3f 4f       	sbci	r19, 0xFF	; 255
 620:	4f 4f       	sbci	r20, 0xFF	; 255
 622:	5f 4f       	sbci	r21, 0xFF	; 255
 624:	64 e0       	ldi	r22, 0x04	; 4
 626:	55 95       	asr	r21
 628:	47 95       	ror	r20
 62a:	37 95       	ror	r19
 62c:	27 95       	ror	r18
 62e:	6a 95       	dec	r22
 630:	d1 f7       	brne	.-12     	; 0x626 <BMP180_GetTemp+0xa8>
 632:	b9 01       	movw	r22, r18
 634:	ca 01       	movw	r24, r20
 636:	1f 91       	pop	r17
 638:	0f 91       	pop	r16
 63a:	ff 90       	pop	r15
 63c:	ef 90       	pop	r14
 63e:	08 95       	ret

00000640 <BMP180_Init>:
 640:	df 93       	push	r29
 642:	cf 93       	push	r28
 644:	cd b7       	in	r28, 0x3d	; 61
 646:	de b7       	in	r29, 0x3e	; 62
 648:	66 97       	sbiw	r28, 0x16	; 22
 64a:	0f b6       	in	r0, 0x3f	; 63
 64c:	f8 94       	cli
 64e:	de bf       	out	0x3e, r29	; 62
 650:	0f be       	out	0x3f, r0	; 63
 652:	cd bf       	out	0x3d, r28	; 61
 654:	80 93 ed 00 	sts	0x00ED, r24
 658:	8e ee       	ldi	r24, 0xEE	; 238
 65a:	6a ea       	ldi	r22, 0xAA	; 170
 65c:	46 e1       	ldi	r20, 0x16	; 22
 65e:	9e 01       	movw	r18, r28
 660:	2f 5f       	subi	r18, 0xFF	; 255
 662:	3f 4f       	sbci	r19, 0xFF	; 255
 664:	11 d1       	rcall	.+546    	; 0x888 <TWI_ReadBytes>
 666:	99 81       	ldd	r25, Y+1	; 0x01
 668:	80 e0       	ldi	r24, 0x00	; 0
 66a:	2a 81       	ldd	r18, Y+2	; 0x02
 66c:	30 e0       	ldi	r19, 0x00	; 0
 66e:	82 2b       	or	r24, r18
 670:	93 2b       	or	r25, r19
 672:	90 93 ef 00 	sts	0x00EF, r25
 676:	80 93 ee 00 	sts	0x00EE, r24
 67a:	9b 81       	ldd	r25, Y+3	; 0x03
 67c:	80 e0       	ldi	r24, 0x00	; 0
 67e:	2c 81       	ldd	r18, Y+4	; 0x04
 680:	30 e0       	ldi	r19, 0x00	; 0
 682:	82 2b       	or	r24, r18
 684:	93 2b       	or	r25, r19
 686:	90 93 f1 00 	sts	0x00F1, r25
 68a:	80 93 f0 00 	sts	0x00F0, r24
 68e:	9d 81       	ldd	r25, Y+5	; 0x05
 690:	80 e0       	ldi	r24, 0x00	; 0
 692:	2e 81       	ldd	r18, Y+6	; 0x06
 694:	30 e0       	ldi	r19, 0x00	; 0
 696:	82 2b       	or	r24, r18
 698:	93 2b       	or	r25, r19
 69a:	90 93 f3 00 	sts	0x00F3, r25
 69e:	80 93 f2 00 	sts	0x00F2, r24
 6a2:	9f 81       	ldd	r25, Y+7	; 0x07
 6a4:	80 e0       	ldi	r24, 0x00	; 0
 6a6:	28 85       	ldd	r18, Y+8	; 0x08
 6a8:	30 e0       	ldi	r19, 0x00	; 0
 6aa:	82 2b       	or	r24, r18
 6ac:	93 2b       	or	r25, r19
 6ae:	90 93 f5 00 	sts	0x00F5, r25
 6b2:	80 93 f4 00 	sts	0x00F4, r24
 6b6:	99 85       	ldd	r25, Y+9	; 0x09
 6b8:	80 e0       	ldi	r24, 0x00	; 0
 6ba:	2a 85       	ldd	r18, Y+10	; 0x0a
 6bc:	30 e0       	ldi	r19, 0x00	; 0
 6be:	82 2b       	or	r24, r18
 6c0:	93 2b       	or	r25, r19
 6c2:	90 93 f7 00 	sts	0x00F7, r25
 6c6:	80 93 f6 00 	sts	0x00F6, r24
 6ca:	9b 85       	ldd	r25, Y+11	; 0x0b
 6cc:	80 e0       	ldi	r24, 0x00	; 0
 6ce:	2c 85       	ldd	r18, Y+12	; 0x0c
 6d0:	30 e0       	ldi	r19, 0x00	; 0
 6d2:	82 2b       	or	r24, r18
 6d4:	93 2b       	or	r25, r19
 6d6:	90 93 f9 00 	sts	0x00F9, r25
 6da:	80 93 f8 00 	sts	0x00F8, r24
 6de:	9d 85       	ldd	r25, Y+13	; 0x0d
 6e0:	80 e0       	ldi	r24, 0x00	; 0
 6e2:	2e 85       	ldd	r18, Y+14	; 0x0e
 6e4:	30 e0       	ldi	r19, 0x00	; 0
 6e6:	82 2b       	or	r24, r18
 6e8:	93 2b       	or	r25, r19
 6ea:	90 93 fb 00 	sts	0x00FB, r25
 6ee:	80 93 fa 00 	sts	0x00FA, r24
 6f2:	9f 85       	ldd	r25, Y+15	; 0x0f
 6f4:	80 e0       	ldi	r24, 0x00	; 0
 6f6:	28 89       	ldd	r18, Y+16	; 0x10
 6f8:	30 e0       	ldi	r19, 0x00	; 0
 6fa:	82 2b       	or	r24, r18
 6fc:	93 2b       	or	r25, r19
 6fe:	90 93 fd 00 	sts	0x00FD, r25
 702:	80 93 fc 00 	sts	0x00FC, r24
 706:	99 89       	ldd	r25, Y+17	; 0x11
 708:	80 e0       	ldi	r24, 0x00	; 0
 70a:	2a 89       	ldd	r18, Y+18	; 0x12
 70c:	30 e0       	ldi	r19, 0x00	; 0
 70e:	82 2b       	or	r24, r18
 710:	93 2b       	or	r25, r19
 712:	90 93 ff 00 	sts	0x00FF, r25
 716:	80 93 fe 00 	sts	0x00FE, r24
 71a:	9b 89       	ldd	r25, Y+19	; 0x13
 71c:	80 e0       	ldi	r24, 0x00	; 0
 71e:	2c 89       	ldd	r18, Y+20	; 0x14
 720:	30 e0       	ldi	r19, 0x00	; 0
 722:	82 2b       	or	r24, r18
 724:	93 2b       	or	r25, r19
 726:	90 93 01 01 	sts	0x0101, r25
 72a:	80 93 00 01 	sts	0x0100, r24
 72e:	9d 89       	ldd	r25, Y+21	; 0x15
 730:	80 e0       	ldi	r24, 0x00	; 0
 732:	2e 89       	ldd	r18, Y+22	; 0x16
 734:	30 e0       	ldi	r19, 0x00	; 0
 736:	82 2b       	or	r24, r18
 738:	93 2b       	or	r25, r19
 73a:	90 93 03 01 	sts	0x0103, r25
 73e:	80 93 02 01 	sts	0x0102, r24
 742:	66 96       	adiw	r28, 0x16	; 22
 744:	0f b6       	in	r0, 0x3f	; 63
 746:	f8 94       	cli
 748:	de bf       	out	0x3e, r29	; 62
 74a:	0f be       	out	0x3f, r0	; 63
 74c:	cd bf       	out	0x3d, r28	; 61
 74e:	cf 91       	pop	r28
 750:	df 91       	pop	r29
 752:	08 95       	ret

00000754 <BMP180_StartPress>:
 754:	38 d0       	rcall	.+112    	; 0x7c6 <TWI_Start>
 756:	8e ee       	ldi	r24, 0xEE	; 238
 758:	53 d0       	rcall	.+166    	; 0x800 <TWI_Write_SLA>
 75a:	84 ef       	ldi	r24, 0xF4	; 244
 75c:	68 d0       	rcall	.+208    	; 0x82e <TWI_WriteByte>
 75e:	80 91 ed 00 	lds	r24, 0x00ED
 762:	65 d0       	rcall	.+202    	; 0x82e <TWI_WriteByte>
 764:	4a d0       	rcall	.+148    	; 0x7fa <TWI_Stop>
 766:	08 95       	ret

00000768 <BMP180_StartTemp>:
 768:	2e d0       	rcall	.+92     	; 0x7c6 <TWI_Start>
 76a:	8e ee       	ldi	r24, 0xEE	; 238
 76c:	49 d0       	rcall	.+146    	; 0x800 <TWI_Write_SLA>
 76e:	84 ef       	ldi	r24, 0xF4	; 244
 770:	5e d0       	rcall	.+188    	; 0x82e <TWI_WriteByte>
 772:	8e e2       	ldi	r24, 0x2E	; 46
 774:	5c d0       	rcall	.+184    	; 0x82e <TWI_WriteByte>
 776:	41 d0       	rcall	.+130    	; 0x7fa <TWI_Stop>
 778:	08 95       	ret

0000077a <TWI_Init>:
 77a:	24 e4       	ldi	r18, 0x44	; 68
 77c:	26 bf       	out	0x36, r18	; 54
 77e:	9c 01       	movw	r18, r24
 780:	40 e0       	ldi	r20, 0x00	; 0
 782:	50 e0       	ldi	r21, 0x00	; 0
 784:	60 e4       	ldi	r22, 0x40	; 64
 786:	7c e9       	ldi	r23, 0x9C	; 156
 788:	80 e0       	ldi	r24, 0x00	; 0
 78a:	90 e0       	ldi	r25, 0x00	; 0
 78c:	b9 d1       	rcall	.+882    	; 0xb00 <__divmodsi4>
 78e:	20 51       	subi	r18, 0x10	; 16
 790:	30 40       	sbci	r19, 0x00	; 0
 792:	40 40       	sbci	r20, 0x00	; 0
 794:	50 40       	sbci	r21, 0x00	; 0
 796:	ca 01       	movw	r24, r20
 798:	b9 01       	movw	r22, r18
 79a:	22 e0       	ldi	r18, 0x02	; 2
 79c:	30 e0       	ldi	r19, 0x00	; 0
 79e:	40 e0       	ldi	r20, 0x00	; 0
 7a0:	50 e0       	ldi	r21, 0x00	; 0
 7a2:	ae d1       	rcall	.+860    	; 0xb00 <__divmodsi4>
 7a4:	90 e0       	ldi	r25, 0x00	; 0
 7a6:	05 c0       	rjmp	.+10     	; 0x7b2 <TWI_Init+0x38>
 7a8:	9f 5f       	subi	r25, 0xFF	; 255
 7aa:	36 95       	lsr	r19
 7ac:	27 95       	ror	r18
 7ae:	36 95       	lsr	r19
 7b0:	27 95       	ror	r18
 7b2:	2f 3f       	cpi	r18, 0xFF	; 255
 7b4:	31 05       	cpc	r19, r1
 7b6:	09 f0       	breq	.+2      	; 0x7ba <TWI_Init+0x40>
 7b8:	b8 f7       	brcc	.-18     	; 0x7a8 <TWI_Init+0x2e>
 7ba:	81 b1       	in	r24, 0x01	; 1
 7bc:	83 70       	andi	r24, 0x03	; 3
 7be:	98 2b       	or	r25, r24
 7c0:	91 b9       	out	0x01, r25	; 1
 7c2:	20 b9       	out	0x00, r18	; 0
 7c4:	08 95       	ret

000007c6 <TWI_Start>:
 7c6:	84 ea       	ldi	r24, 0xA4	; 164
 7c8:	86 bf       	out	0x36, r24	; 54
 7ca:	06 b6       	in	r0, 0x36	; 54
 7cc:	07 fe       	sbrs	r0, 7
 7ce:	fd cf       	rjmp	.-6      	; 0x7ca <TWI_Start+0x4>
 7d0:	81 b1       	in	r24, 0x01	; 1
 7d2:	88 7f       	andi	r24, 0xF8	; 248
 7d4:	88 30       	cpi	r24, 0x08	; 8
 7d6:	19 f0       	breq	.+6      	; 0x7de <TWI_Start+0x18>
 7d8:	81 e0       	ldi	r24, 0x01	; 1
 7da:	80 93 b8 00 	sts	0x00B8, r24
 7de:	08 95       	ret

000007e0 <TWI_RStart>:
 7e0:	84 ea       	ldi	r24, 0xA4	; 164
 7e2:	86 bf       	out	0x36, r24	; 54
 7e4:	06 b6       	in	r0, 0x36	; 54
 7e6:	07 fe       	sbrs	r0, 7
 7e8:	fd cf       	rjmp	.-6      	; 0x7e4 <TWI_RStart+0x4>
 7ea:	81 b1       	in	r24, 0x01	; 1
 7ec:	88 7f       	andi	r24, 0xF8	; 248
 7ee:	80 31       	cpi	r24, 0x10	; 16
 7f0:	19 f0       	breq	.+6      	; 0x7f8 <TWI_RStart+0x18>
 7f2:	82 e0       	ldi	r24, 0x02	; 2
 7f4:	80 93 b8 00 	sts	0x00B8, r24
 7f8:	08 95       	ret

000007fa <TWI_Stop>:
 7fa:	84 e9       	ldi	r24, 0x94	; 148
 7fc:	86 bf       	out	0x36, r24	; 54
 7fe:	08 95       	ret

00000800 <TWI_Write_SLA>:
 800:	80 fd       	sbrc	r24, 0
 802:	02 c0       	rjmp	.+4      	; 0x808 <TWI_Write_SLA+0x8>
 804:	28 e1       	ldi	r18, 0x18	; 24
 806:	01 c0       	rjmp	.+2      	; 0x80a <TWI_Write_SLA+0xa>
 808:	20 e4       	ldi	r18, 0x40	; 64
 80a:	83 b9       	out	0x03, r24	; 3
 80c:	84 e8       	ldi	r24, 0x84	; 132
 80e:	86 bf       	out	0x36, r24	; 54
 810:	06 b6       	in	r0, 0x36	; 54
 812:	07 fe       	sbrs	r0, 7
 814:	fd cf       	rjmp	.-6      	; 0x810 <TWI_Write_SLA+0x10>
 816:	81 b1       	in	r24, 0x01	; 1
 818:	90 e0       	ldi	r25, 0x00	; 0
 81a:	88 7f       	andi	r24, 0xF8	; 248
 81c:	90 70       	andi	r25, 0x00	; 0
 81e:	30 e0       	ldi	r19, 0x00	; 0
 820:	82 17       	cp	r24, r18
 822:	93 07       	cpc	r25, r19
 824:	19 f0       	breq	.+6      	; 0x82c <TWI_Write_SLA+0x2c>
 826:	84 e0       	ldi	r24, 0x04	; 4
 828:	80 93 b8 00 	sts	0x00B8, r24
 82c:	08 95       	ret

0000082e <TWI_WriteByte>:
 82e:	83 b9       	out	0x03, r24	; 3
 830:	84 e8       	ldi	r24, 0x84	; 132
 832:	86 bf       	out	0x36, r24	; 54
 834:	06 b6       	in	r0, 0x36	; 54
 836:	07 fe       	sbrs	r0, 7
 838:	fd cf       	rjmp	.-6      	; 0x834 <TWI_WriteByte+0x6>
 83a:	81 b1       	in	r24, 0x01	; 1
 83c:	88 7f       	andi	r24, 0xF8	; 248
 83e:	88 32       	cpi	r24, 0x28	; 40
 840:	19 f0       	breq	.+6      	; 0x848 <TWI_WriteByte+0x1a>
 842:	85 e0       	ldi	r24, 0x05	; 5
 844:	80 93 b8 00 	sts	0x00B8, r24
 848:	08 95       	ret

0000084a <TWI_ReadByte_NACK>:
 84a:	84 e8       	ldi	r24, 0x84	; 132
 84c:	86 bf       	out	0x36, r24	; 54
 84e:	06 b6       	in	r0, 0x36	; 54
 850:	07 fe       	sbrs	r0, 7
 852:	fd cf       	rjmp	.-6      	; 0x84e <TWI_ReadByte_NACK+0x4>
 854:	81 b1       	in	r24, 0x01	; 1
 856:	88 7f       	andi	r24, 0xF8	; 248
 858:	80 35       	cpi	r24, 0x50	; 80
 85a:	19 f0       	breq	.+6      	; 0x862 <TWI_ReadByte_NACK+0x18>
 85c:	85 e0       	ldi	r24, 0x05	; 5
 85e:	80 93 b8 00 	sts	0x00B8, r24
 862:	83 b1       	in	r24, 0x03	; 3
 864:	08 95       	ret

00000866 <TWI_ReadByte_ACK>:
 866:	84 ec       	ldi	r24, 0xC4	; 196
 868:	86 bf       	out	0x36, r24	; 54
 86a:	06 b6       	in	r0, 0x36	; 54
 86c:	07 fe       	sbrs	r0, 7
 86e:	fd cf       	rjmp	.-6      	; 0x86a <TWI_ReadByte_ACK+0x4>
 870:	81 b1       	in	r24, 0x01	; 1
 872:	88 7f       	andi	r24, 0xF8	; 248
 874:	80 35       	cpi	r24, 0x50	; 80
 876:	19 f0       	breq	.+6      	; 0x87e <TWI_ReadByte_ACK+0x18>
 878:	85 e0       	ldi	r24, 0x05	; 5
 87a:	80 93 b8 00 	sts	0x00B8, r24
 87e:	83 b1       	in	r24, 0x03	; 3
 880:	08 95       	ret

00000882 <TWI_ERROR>:
 882:	80 93 b8 00 	sts	0x00B8, r24
 886:	08 95       	ret

00000888 <TWI_ReadBytes>:
 888:	ff 92       	push	r15
 88a:	0f 93       	push	r16
 88c:	1f 93       	push	r17
 88e:	cf 93       	push	r28
 890:	df 93       	push	r29
 892:	08 2f       	mov	r16, r24
 894:	16 2f       	mov	r17, r22
 896:	f4 2e       	mov	r15, r20
 898:	e9 01       	movw	r28, r18
 89a:	95 df       	rcall	.-214    	; 0x7c6 <TWI_Start>
 89c:	80 2f       	mov	r24, r16
 89e:	b0 df       	rcall	.-160    	; 0x800 <TWI_Write_SLA>
 8a0:	81 2f       	mov	r24, r17
 8a2:	c5 df       	rcall	.-118    	; 0x82e <TWI_WriteByte>
 8a4:	9d df       	rcall	.-198    	; 0x7e0 <TWI_RStart>
 8a6:	80 2f       	mov	r24, r16
 8a8:	8f 5f       	subi	r24, 0xFF	; 255
 8aa:	aa df       	rcall	.-172    	; 0x800 <TWI_Write_SLA>
 8ac:	06 c0       	rjmp	.+12     	; 0x8ba <TWI_ReadBytes+0x32>
 8ae:	fa 94       	dec	r15
 8b0:	11 f0       	breq	.+4      	; 0x8b6 <TWI_ReadBytes+0x2e>
 8b2:	d9 df       	rcall	.-78     	; 0x866 <TWI_ReadByte_ACK>
 8b4:	01 c0       	rjmp	.+2      	; 0x8b8 <TWI_ReadBytes+0x30>
 8b6:	c9 df       	rcall	.-110    	; 0x84a <TWI_ReadByte_NACK>
 8b8:	89 93       	st	Y+, r24
 8ba:	ff 20       	and	r15, r15
 8bc:	c1 f7       	brne	.-16     	; 0x8ae <TWI_ReadBytes+0x26>
 8be:	df 91       	pop	r29
 8c0:	cf 91       	pop	r28
 8c2:	1f 91       	pop	r17
 8c4:	0f 91       	pop	r16
 8c6:	ff 90       	pop	r15
 8c8:	08 95       	ret

000008ca <TWI_WriteBytes>:
 8ca:	ff 92       	push	r15
 8cc:	0f 93       	push	r16
 8ce:	1f 93       	push	r17
 8d0:	cf 93       	push	r28
 8d2:	df 93       	push	r29
 8d4:	18 2f       	mov	r17, r24
 8d6:	06 2f       	mov	r16, r22
 8d8:	f4 2e       	mov	r15, r20
 8da:	e9 01       	movw	r28, r18
 8dc:	74 df       	rcall	.-280    	; 0x7c6 <TWI_Start>
 8de:	81 2f       	mov	r24, r17
 8e0:	8f df       	rcall	.-226    	; 0x800 <TWI_Write_SLA>
 8e2:	80 2f       	mov	r24, r16
 8e4:	a4 df       	rcall	.-184    	; 0x82e <TWI_WriteByte>
 8e6:	03 c0       	rjmp	.+6      	; 0x8ee <TWI_WriteBytes+0x24>
 8e8:	89 91       	ld	r24, Y+
 8ea:	a1 df       	rcall	.-190    	; 0x82e <TWI_WriteByte>
 8ec:	fa 94       	dec	r15
 8ee:	ff 20       	and	r15, r15
 8f0:	d9 f7       	brne	.-10     	; 0x8e8 <TWI_WriteBytes+0x1e>
 8f2:	84 e9       	ldi	r24, 0x94	; 148
 8f4:	86 bf       	out	0x36, r24	; 54
 8f6:	df 91       	pop	r29
 8f8:	cf 91       	pop	r28
 8fa:	1f 91       	pop	r17
 8fc:	0f 91       	pop	r16
 8fe:	ff 90       	pop	r15
 900:	08 95       	ret

00000902 <SendToUart>:
 902:	84 e6       	ldi	r24, 0x64	; 100
 904:	90 e0       	ldi	r25, 0x00	; 0
 906:	d4 db       	rcall	.-2136   	; 0xb0 <uart_puts>
 908:	60 91 10 01 	lds	r22, 0x0110
 90c:	70 91 11 01 	lds	r23, 0x0111
 910:	80 91 12 01 	lds	r24, 0x0112
 914:	90 91 13 01 	lds	r25, 0x0113
 918:	2a e0       	ldi	r18, 0x0A	; 10
 91a:	30 e0       	ldi	r19, 0x00	; 0
 91c:	40 e0       	ldi	r20, 0x00	; 0
 91e:	50 e0       	ldi	r21, 0x00	; 0
 920:	ef d0       	rcall	.+478    	; 0xb00 <__divmodsi4>
 922:	da 01       	movw	r26, r20
 924:	c9 01       	movw	r24, r18
 926:	6a e0       	ldi	r22, 0x0A	; 10
 928:	70 e0       	ldi	r23, 0x00	; 0
 92a:	2a dc       	rcall	.-1964   	; 0x180 <uart_putint>
 92c:	81 e7       	ldi	r24, 0x71	; 113
 92e:	90 e0       	ldi	r25, 0x00	; 0
 930:	bf db       	rcall	.-2178   	; 0xb0 <uart_puts>
 932:	60 91 10 01 	lds	r22, 0x0110
 936:	70 91 11 01 	lds	r23, 0x0111
 93a:	80 91 12 01 	lds	r24, 0x0112
 93e:	90 91 13 01 	lds	r25, 0x0113
 942:	2a e0       	ldi	r18, 0x0A	; 10
 944:	30 e0       	ldi	r19, 0x00	; 0
 946:	40 e0       	ldi	r20, 0x00	; 0
 948:	50 e0       	ldi	r21, 0x00	; 0
 94a:	da d0       	rcall	.+436    	; 0xb00 <__divmodsi4>
 94c:	dc 01       	movw	r26, r24
 94e:	cb 01       	movw	r24, r22
 950:	6a e0       	ldi	r22, 0x0A	; 10
 952:	70 e0       	ldi	r23, 0x00	; 0
 954:	15 dc       	rcall	.-2006   	; 0x180 <uart_putint>
 956:	83 e7       	ldi	r24, 0x73	; 115
 958:	90 e0       	ldi	r25, 0x00	; 0
 95a:	aa db       	rcall	.-2220   	; 0xb0 <uart_puts>
 95c:	86 e7       	ldi	r24, 0x76	; 118
 95e:	90 e0       	ldi	r25, 0x00	; 0
 960:	a7 db       	rcall	.-2226   	; 0xb0 <uart_puts>
 962:	60 91 14 01 	lds	r22, 0x0114
 966:	70 91 15 01 	lds	r23, 0x0115
 96a:	80 91 16 01 	lds	r24, 0x0116
 96e:	90 91 17 01 	lds	r25, 0x0117
 972:	24 e6       	ldi	r18, 0x64	; 100
 974:	30 e0       	ldi	r19, 0x00	; 0
 976:	40 e0       	ldi	r20, 0x00	; 0
 978:	50 e0       	ldi	r21, 0x00	; 0
 97a:	c2 d0       	rcall	.+388    	; 0xb00 <__divmodsi4>
 97c:	da 01       	movw	r26, r20
 97e:	c9 01       	movw	r24, r18
 980:	6a e0       	ldi	r22, 0x0A	; 10
 982:	70 e0       	ldi	r23, 0x00	; 0
 984:	fd db       	rcall	.-2054   	; 0x180 <uart_putint>
 986:	81 e7       	ldi	r24, 0x71	; 113
 988:	90 e0       	ldi	r25, 0x00	; 0
 98a:	92 db       	rcall	.-2268   	; 0xb0 <uart_puts>
 98c:	60 91 14 01 	lds	r22, 0x0114
 990:	70 91 15 01 	lds	r23, 0x0115
 994:	80 91 16 01 	lds	r24, 0x0116
 998:	90 91 17 01 	lds	r25, 0x0117
 99c:	24 e6       	ldi	r18, 0x64	; 100
 99e:	30 e0       	ldi	r19, 0x00	; 0
 9a0:	40 e0       	ldi	r20, 0x00	; 0
 9a2:	50 e0       	ldi	r21, 0x00	; 0
 9a4:	ad d0       	rcall	.+346    	; 0xb00 <__divmodsi4>
 9a6:	6a 30       	cpi	r22, 0x0A	; 10
 9a8:	71 05       	cpc	r23, r1
 9aa:	81 05       	cpc	r24, r1
 9ac:	91 05       	cpc	r25, r1
 9ae:	1c f4       	brge	.+6      	; 0x9b6 <SendToUart+0xb4>
 9b0:	82 e8       	ldi	r24, 0x82	; 130
 9b2:	90 e0       	ldi	r25, 0x00	; 0
 9b4:	7d db       	rcall	.-2310   	; 0xb0 <uart_puts>
 9b6:	60 91 14 01 	lds	r22, 0x0114
 9ba:	70 91 15 01 	lds	r23, 0x0115
 9be:	80 91 16 01 	lds	r24, 0x0116
 9c2:	90 91 17 01 	lds	r25, 0x0117
 9c6:	24 e6       	ldi	r18, 0x64	; 100
 9c8:	30 e0       	ldi	r19, 0x00	; 0
 9ca:	40 e0       	ldi	r20, 0x00	; 0
 9cc:	50 e0       	ldi	r21, 0x00	; 0
 9ce:	98 d0       	rcall	.+304    	; 0xb00 <__divmodsi4>
 9d0:	dc 01       	movw	r26, r24
 9d2:	cb 01       	movw	r24, r22
 9d4:	6a e0       	ldi	r22, 0x0A	; 10
 9d6:	70 e0       	ldi	r23, 0x00	; 0
 9d8:	d3 db       	rcall	.-2138   	; 0x180 <uart_putint>
 9da:	84 e8       	ldi	r24, 0x84	; 132
 9dc:	90 e0       	ldi	r25, 0x00	; 0
 9de:	68 db       	rcall	.-2352   	; 0xb0 <uart_puts>
 9e0:	08 95       	ret

000009e2 <InterfaceInit>:
 9e2:	88 ee       	ldi	r24, 0xE8	; 232
 9e4:	93 e0       	ldi	r25, 0x03	; 3
 9e6:	c9 de       	rcall	.-622    	; 0x77a <TWI_Init>
 9e8:	08 95       	ret

000009ea <main>:
 9ea:	0f 93       	push	r16
 9ec:	1f 93       	push	r17
 9ee:	cf 93       	push	r28
 9f0:	df 93       	push	r29
 9f2:	82 e0       	ldi	r24, 0x02	; 2
 9f4:	87 bb       	out	0x17, r24	; 23
 9f6:	88 bb       	out	0x18, r24	; 24
 9f8:	88 ee       	ldi	r24, 0xE8	; 232
 9fa:	93 e0       	ldi	r25, 0x03	; 3
 9fc:	be de       	rcall	.-644    	; 0x77a <TWI_Init>
 9fe:	10 92 10 01 	sts	0x0110, r1
 a02:	10 92 11 01 	sts	0x0111, r1
 a06:	10 92 12 01 	sts	0x0112, r1
 a0a:	10 92 13 01 	sts	0x0113, r1
 a0e:	10 92 14 01 	sts	0x0114, r1
 a12:	10 92 15 01 	sts	0x0115, r1
 a16:	10 92 16 01 	sts	0x0116, r1
 a1a:	10 92 17 01 	sts	0x0117, r1
 a1e:	84 e7       	ldi	r24, 0x74	; 116
 a20:	0f de       	rcall	.-994    	; 0x640 <BMP180_Init>
 a22:	89 e1       	ldi	r24, 0x19	; 25
 a24:	90 e0       	ldi	r25, 0x00	; 0
 a26:	1b db       	rcall	.-2506   	; 0x5e <USART_Init>
 a28:	78 94       	sei
 a2a:	87 e8       	ldi	r24, 0x87	; 135
 a2c:	90 e0       	ldi	r25, 0x00	; 0
 a2e:	40 db       	rcall	.-2432   	; 0xb0 <uart_puts>
 a30:	c0 e5       	ldi	r28, 0x50	; 80
 a32:	d3 ec       	ldi	r29, 0xC3	; 195
 a34:	04 e6       	ldi	r16, 0x64	; 100
 a36:	10 e0       	ldi	r17, 0x00	; 0
 a38:	97 de       	rcall	.-722    	; 0x768 <BMP180_StartTemp>
 a3a:	ce 01       	movw	r24, r28
 a3c:	01 97       	sbiw	r24, 0x01	; 1
 a3e:	f1 f7       	brne	.-4      	; 0xa3c <main+0x52>
 a40:	9e dd       	rcall	.-1220   	; 0x57e <BMP180_GetTemp>
 a42:	60 93 10 01 	sts	0x0110, r22
 a46:	70 93 11 01 	sts	0x0111, r23
 a4a:	80 93 12 01 	sts	0x0112, r24
 a4e:	90 93 13 01 	sts	0x0113, r25
 a52:	80 de       	rcall	.-768    	; 0x754 <BMP180_StartPress>
 a54:	ce 01       	movw	r24, r28
 a56:	01 97       	sbiw	r24, 0x01	; 1
 a58:	f1 f7       	brne	.-4      	; 0xa56 <main+0x6c>
 a5a:	f6 db       	rcall	.-2068   	; 0x248 <BMP180_GetPress>
 a5c:	60 93 14 01 	sts	0x0114, r22
 a60:	70 93 15 01 	sts	0x0115, r23
 a64:	80 93 16 01 	sts	0x0116, r24
 a68:	90 93 17 01 	sts	0x0117, r25
 a6c:	4a df       	rcall	.-364    	; 0x902 <SendToUart>
 a6e:	80 e5       	ldi	r24, 0x50	; 80
 a70:	93 ec       	ldi	r25, 0xC3	; 195
 a72:	f8 01       	movw	r30, r16
 a74:	31 97       	sbiw	r30, 0x01	; 1
 a76:	f1 f7       	brne	.-4      	; 0xa74 <main+0x8a>
 a78:	01 97       	sbiw	r24, 0x01	; 1
 a7a:	d9 f7       	brne	.-10     	; 0xa72 <main+0x88>
 a7c:	dd cf       	rjmp	.-70     	; 0xa38 <main+0x4e>

00000a7e <__mulsi3>:
 a7e:	62 9f       	mul	r22, r18
 a80:	d0 01       	movw	r26, r0
 a82:	73 9f       	mul	r23, r19
 a84:	f0 01       	movw	r30, r0
 a86:	82 9f       	mul	r24, r18
 a88:	e0 0d       	add	r30, r0
 a8a:	f1 1d       	adc	r31, r1
 a8c:	64 9f       	mul	r22, r20
 a8e:	e0 0d       	add	r30, r0
 a90:	f1 1d       	adc	r31, r1
 a92:	92 9f       	mul	r25, r18
 a94:	f0 0d       	add	r31, r0
 a96:	83 9f       	mul	r24, r19
 a98:	f0 0d       	add	r31, r0
 a9a:	74 9f       	mul	r23, r20
 a9c:	f0 0d       	add	r31, r0
 a9e:	65 9f       	mul	r22, r21
 aa0:	f0 0d       	add	r31, r0
 aa2:	99 27       	eor	r25, r25
 aa4:	72 9f       	mul	r23, r18
 aa6:	b0 0d       	add	r27, r0
 aa8:	e1 1d       	adc	r30, r1
 aaa:	f9 1f       	adc	r31, r25
 aac:	63 9f       	mul	r22, r19
 aae:	b0 0d       	add	r27, r0
 ab0:	e1 1d       	adc	r30, r1
 ab2:	f9 1f       	adc	r31, r25
 ab4:	bd 01       	movw	r22, r26
 ab6:	cf 01       	movw	r24, r30
 ab8:	11 24       	eor	r1, r1
 aba:	08 95       	ret

00000abc <__udivmodsi4>:
 abc:	a1 e2       	ldi	r26, 0x21	; 33
 abe:	1a 2e       	mov	r1, r26
 ac0:	aa 1b       	sub	r26, r26
 ac2:	bb 1b       	sub	r27, r27
 ac4:	fd 01       	movw	r30, r26
 ac6:	0d c0       	rjmp	.+26     	; 0xae2 <__udivmodsi4_ep>

00000ac8 <__udivmodsi4_loop>:
 ac8:	aa 1f       	adc	r26, r26
 aca:	bb 1f       	adc	r27, r27
 acc:	ee 1f       	adc	r30, r30
 ace:	ff 1f       	adc	r31, r31
 ad0:	a2 17       	cp	r26, r18
 ad2:	b3 07       	cpc	r27, r19
 ad4:	e4 07       	cpc	r30, r20
 ad6:	f5 07       	cpc	r31, r21
 ad8:	20 f0       	brcs	.+8      	; 0xae2 <__udivmodsi4_ep>
 ada:	a2 1b       	sub	r26, r18
 adc:	b3 0b       	sbc	r27, r19
 ade:	e4 0b       	sbc	r30, r20
 ae0:	f5 0b       	sbc	r31, r21

00000ae2 <__udivmodsi4_ep>:
 ae2:	66 1f       	adc	r22, r22
 ae4:	77 1f       	adc	r23, r23
 ae6:	88 1f       	adc	r24, r24
 ae8:	99 1f       	adc	r25, r25
 aea:	1a 94       	dec	r1
 aec:	69 f7       	brne	.-38     	; 0xac8 <__udivmodsi4_loop>
 aee:	60 95       	com	r22
 af0:	70 95       	com	r23
 af2:	80 95       	com	r24
 af4:	90 95       	com	r25
 af6:	9b 01       	movw	r18, r22
 af8:	ac 01       	movw	r20, r24
 afa:	bd 01       	movw	r22, r26
 afc:	cf 01       	movw	r24, r30
 afe:	08 95       	ret

00000b00 <__divmodsi4>:
 b00:	97 fb       	bst	r25, 7
 b02:	09 2e       	mov	r0, r25
 b04:	05 26       	eor	r0, r21
 b06:	0e d0       	rcall	.+28     	; 0xb24 <__divmodsi4_neg1>
 b08:	57 fd       	sbrc	r21, 7
 b0a:	04 d0       	rcall	.+8      	; 0xb14 <__divmodsi4_neg2>
 b0c:	d7 df       	rcall	.-82     	; 0xabc <__udivmodsi4>
 b0e:	0a d0       	rcall	.+20     	; 0xb24 <__divmodsi4_neg1>
 b10:	00 1c       	adc	r0, r0
 b12:	38 f4       	brcc	.+14     	; 0xb22 <__divmodsi4_exit>

00000b14 <__divmodsi4_neg2>:
 b14:	50 95       	com	r21
 b16:	40 95       	com	r20
 b18:	30 95       	com	r19
 b1a:	21 95       	neg	r18
 b1c:	3f 4f       	sbci	r19, 0xFF	; 255
 b1e:	4f 4f       	sbci	r20, 0xFF	; 255
 b20:	5f 4f       	sbci	r21, 0xFF	; 255

00000b22 <__divmodsi4_exit>:
 b22:	08 95       	ret

00000b24 <__divmodsi4_neg1>:
 b24:	f6 f7       	brtc	.-4      	; 0xb22 <__divmodsi4_exit>
 b26:	90 95       	com	r25
 b28:	80 95       	com	r24
 b2a:	70 95       	com	r23
 b2c:	61 95       	neg	r22
 b2e:	7f 4f       	sbci	r23, 0xFF	; 255
 b30:	8f 4f       	sbci	r24, 0xFF	; 255
 b32:	9f 4f       	sbci	r25, 0xFF	; 255
 b34:	08 95       	ret

00000b36 <itoa>:
 b36:	fb 01       	movw	r30, r22
 b38:	9f 01       	movw	r18, r30
 b3a:	e8 94       	clt
 b3c:	42 30       	cpi	r20, 0x02	; 2
 b3e:	bc f0       	brlt	.+46     	; 0xb6e <itoa+0x38>
 b40:	45 32       	cpi	r20, 0x25	; 37
 b42:	ac f4       	brge	.+42     	; 0xb6e <itoa+0x38>
 b44:	4a 30       	cpi	r20, 0x0A	; 10
 b46:	29 f4       	brne	.+10     	; 0xb52 <itoa+0x1c>
 b48:	97 fb       	bst	r25, 7
 b4a:	1e f4       	brtc	.+6      	; 0xb52 <itoa+0x1c>
 b4c:	90 95       	com	r25
 b4e:	81 95       	neg	r24
 b50:	9f 4f       	sbci	r25, 0xFF	; 255
 b52:	64 2f       	mov	r22, r20
 b54:	77 27       	eor	r23, r23
 b56:	1e d0       	rcall	.+60     	; 0xb94 <__udivmodhi4>
 b58:	80 5d       	subi	r24, 0xD0	; 208
 b5a:	8a 33       	cpi	r24, 0x3A	; 58
 b5c:	0c f0       	brlt	.+2      	; 0xb60 <itoa+0x2a>
 b5e:	89 5d       	subi	r24, 0xD9	; 217
 b60:	81 93       	st	Z+, r24
 b62:	cb 01       	movw	r24, r22
 b64:	00 97       	sbiw	r24, 0x00	; 0
 b66:	a9 f7       	brne	.-22     	; 0xb52 <itoa+0x1c>
 b68:	16 f4       	brtc	.+4      	; 0xb6e <itoa+0x38>
 b6a:	5d e2       	ldi	r21, 0x2D	; 45
 b6c:	51 93       	st	Z+, r21
 b6e:	10 82       	st	Z, r1
 b70:	c9 01       	movw	r24, r18
 b72:	00 c0       	rjmp	.+0      	; 0xb74 <strrev>

00000b74 <strrev>:
 b74:	dc 01       	movw	r26, r24
 b76:	fc 01       	movw	r30, r24
 b78:	67 2f       	mov	r22, r23
 b7a:	71 91       	ld	r23, Z+
 b7c:	77 23       	and	r23, r23
 b7e:	e1 f7       	brne	.-8      	; 0xb78 <strrev+0x4>
 b80:	32 97       	sbiw	r30, 0x02	; 2
 b82:	04 c0       	rjmp	.+8      	; 0xb8c <strrev+0x18>
 b84:	7c 91       	ld	r23, X
 b86:	6d 93       	st	X+, r22
 b88:	70 83       	st	Z, r23
 b8a:	62 91       	ld	r22, -Z
 b8c:	ae 17       	cp	r26, r30
 b8e:	bf 07       	cpc	r27, r31
 b90:	c8 f3       	brcs	.-14     	; 0xb84 <strrev+0x10>
 b92:	08 95       	ret

00000b94 <__udivmodhi4>:
 b94:	aa 1b       	sub	r26, r26
 b96:	bb 1b       	sub	r27, r27
 b98:	51 e1       	ldi	r21, 0x11	; 17
 b9a:	07 c0       	rjmp	.+14     	; 0xbaa <__udivmodhi4_ep>

00000b9c <__udivmodhi4_loop>:
 b9c:	aa 1f       	adc	r26, r26
 b9e:	bb 1f       	adc	r27, r27
 ba0:	a6 17       	cp	r26, r22
 ba2:	b7 07       	cpc	r27, r23
 ba4:	10 f0       	brcs	.+4      	; 0xbaa <__udivmodhi4_ep>
 ba6:	a6 1b       	sub	r26, r22
 ba8:	b7 0b       	sbc	r27, r23

00000baa <__udivmodhi4_ep>:
 baa:	88 1f       	adc	r24, r24
 bac:	99 1f       	adc	r25, r25
 bae:	5a 95       	dec	r21
 bb0:	a9 f7       	brne	.-22     	; 0xb9c <__udivmodhi4_loop>
 bb2:	80 95       	com	r24
 bb4:	90 95       	com	r25
 bb6:	bc 01       	movw	r22, r24
 bb8:	cd 01       	movw	r24, r26
 bba:	08 95       	ret

00000bbc <_exit>:
 bbc:	f8 94       	cli

00000bbe <__stop_program>:
 bbe:	ff cf       	rjmp	.-2      	; 0xbbe <__stop_program>
