
Barometr.elf:     file format elf32-avr

Sections:
Idx Name          Size      VMA       LMA       File off  Algn
  0 .text         00000310  00000000  00000000  00000074  2**1
                  CONTENTS, ALLOC, LOAD, READONLY, CODE
  1 .data         00000006  00800060  00000310  00000384  2**0
                  CONTENTS, ALLOC, LOAD, DATA

Disassembly of section .text:

00000000 <__vectors>:
   0:	12 c0       	rjmp	.+36     	; 0x26 <__ctors_end>
   2:	24 c0       	rjmp	.+72     	; 0x4c <__bad_interrupt>
   4:	23 c0       	rjmp	.+70     	; 0x4c <__bad_interrupt>
   6:	22 c0       	rjmp	.+68     	; 0x4c <__bad_interrupt>
   8:	21 c0       	rjmp	.+66     	; 0x4c <__bad_interrupt>
   a:	20 c0       	rjmp	.+64     	; 0x4c <__bad_interrupt>
   c:	1f c0       	rjmp	.+62     	; 0x4c <__bad_interrupt>
   e:	1e c0       	rjmp	.+60     	; 0x4c <__bad_interrupt>
  10:	1d c0       	rjmp	.+58     	; 0x4c <__bad_interrupt>
  12:	1c c0       	rjmp	.+56     	; 0x4c <__bad_interrupt>
  14:	1b c0       	rjmp	.+54     	; 0x4c <__bad_interrupt>
  16:	1a c0       	rjmp	.+52     	; 0x4c <__bad_interrupt>
  18:	19 c0       	rjmp	.+50     	; 0x4c <__bad_interrupt>
  1a:	18 c0       	rjmp	.+48     	; 0x4c <__bad_interrupt>
  1c:	17 c0       	rjmp	.+46     	; 0x4c <__bad_interrupt>
  1e:	16 c0       	rjmp	.+44     	; 0x4c <__bad_interrupt>
  20:	15 c0       	rjmp	.+42     	; 0x4c <__bad_interrupt>
  22:	14 c0       	rjmp	.+40     	; 0x4c <__bad_interrupt>
  24:	13 c0       	rjmp	.+38     	; 0x4c <__bad_interrupt>

00000026 <__ctors_end>:
  26:	11 24       	eor	r1, r1
  28:	1f be       	out	0x3f, r1	; 63
  2a:	cf e5       	ldi	r28, 0x5F	; 95
  2c:	d4 e0       	ldi	r29, 0x04	; 4
  2e:	de bf       	out	0x3e, r29	; 62
  30:	cd bf       	out	0x3d, r28	; 61

00000032 <__do_copy_data>:
  32:	10 e0       	ldi	r17, 0x00	; 0
  34:	a0 e6       	ldi	r26, 0x60	; 96
  36:	b0 e0       	ldi	r27, 0x00	; 0
  38:	e0 e1       	ldi	r30, 0x10	; 16
  3a:	f3 e0       	ldi	r31, 0x03	; 3
  3c:	02 c0       	rjmp	.+4      	; 0x42 <.do_copy_data_start>

0000003e <.do_copy_data_loop>:
  3e:	05 90       	lpm	r0, Z+
  40:	0d 92       	st	X+, r0

00000042 <.do_copy_data_start>:
  42:	a6 36       	cpi	r26, 0x66	; 102
  44:	b1 07       	cpc	r27, r17
  46:	d9 f7       	brne	.-10     	; 0x3e <.do_copy_data_loop>
  48:	19 d1       	rcall	.+562    	; 0x27c <main>
  4a:	60 c1       	rjmp	.+704    	; 0x30c <_exit>

0000004c <__bad_interrupt>:
  4c:	d9 cf       	rjmp	.-78     	; 0x0 <__vectors>

0000004e <I2C_SetSpeed>:
  4e:	9c 01       	movw	r18, r24
  50:	40 e0       	ldi	r20, 0x00	; 0
  52:	50 e0       	ldi	r21, 0x00	; 0
  54:	60 e4       	ldi	r22, 0x40	; 64
  56:	7c e9       	ldi	r23, 0x9C	; 156
  58:	80 e0       	ldi	r24, 0x00	; 0
  5a:	90 e0       	ldi	r25, 0x00	; 0
  5c:	1a d1       	rcall	.+564    	; 0x292 <__divmodsi4>
  5e:	20 51       	subi	r18, 0x10	; 16
  60:	30 40       	sbci	r19, 0x00	; 0
  62:	40 40       	sbci	r20, 0x00	; 0
  64:	50 40       	sbci	r21, 0x00	; 0
  66:	ca 01       	movw	r24, r20
  68:	b9 01       	movw	r22, r18
  6a:	22 e0       	ldi	r18, 0x02	; 2
  6c:	30 e0       	ldi	r19, 0x00	; 0
  6e:	40 e0       	ldi	r20, 0x00	; 0
  70:	50 e0       	ldi	r21, 0x00	; 0
  72:	0f d1       	rcall	.+542    	; 0x292 <__divmodsi4>
  74:	90 e0       	ldi	r25, 0x00	; 0
  76:	05 c0       	rjmp	.+10     	; 0x82 <I2C_SetSpeed+0x34>
  78:	9f 5f       	subi	r25, 0xFF	; 255
  7a:	36 95       	lsr	r19
  7c:	27 95       	ror	r18
  7e:	36 95       	lsr	r19
  80:	27 95       	ror	r18
  82:	2f 3f       	cpi	r18, 0xFF	; 255
  84:	31 05       	cpc	r19, r1
  86:	09 f0       	breq	.+2      	; 0x8a <I2C_SetSpeed+0x3c>
  88:	b8 f7       	brcc	.-18     	; 0x78 <I2C_SetSpeed+0x2a>
  8a:	81 b1       	in	r24, 0x01	; 1
  8c:	83 70       	andi	r24, 0x03	; 3
  8e:	98 2b       	or	r25, r24
  90:	91 b9       	out	0x01, r25	; 1
  92:	20 b9       	out	0x00, r18	; 0
  94:	08 95       	ret

00000096 <I2C_Init>:
  96:	84 e4       	ldi	r24, 0x44	; 68
  98:	86 bf       	out	0x36, r24	; 54
  9a:	88 ee       	ldi	r24, 0xE8	; 232
  9c:	93 e0       	ldi	r25, 0x03	; 3
  9e:	d7 df       	rcall	.-82     	; 0x4e <I2C_SetSpeed>
  a0:	08 95       	ret

000000a2 <I2C_Start>:
  a2:	84 ea       	ldi	r24, 0xA4	; 164
  a4:	86 bf       	out	0x36, r24	; 54
  a6:	06 b6       	in	r0, 0x36	; 54
  a8:	07 fe       	sbrs	r0, 7
  aa:	fd cf       	rjmp	.-6      	; 0xa6 <I2C_Start+0x4>
  ac:	81 b1       	in	r24, 0x01	; 1
  ae:	08 95       	ret

000000b0 <I2C_Stop>:
  b0:	84 e9       	ldi	r24, 0x94	; 148
  b2:	86 bf       	out	0x36, r24	; 54
  b4:	08 95       	ret

000000b6 <I2C_SendAddr>:
  b6:	83 b9       	out	0x03, r24	; 3
  b8:	84 e8       	ldi	r24, 0x84	; 132
  ba:	86 bf       	out	0x36, r24	; 54
  bc:	06 b6       	in	r0, 0x36	; 54
  be:	07 fe       	sbrs	r0, 7
  c0:	fd cf       	rjmp	.-6      	; 0xbc <I2C_SendAddr+0x6>
  c2:	81 b1       	in	r24, 0x01	; 1
  c4:	08 95       	ret

000000c6 <I2C_SendByte>:
  c6:	83 b9       	out	0x03, r24	; 3
  c8:	84 e8       	ldi	r24, 0x84	; 132
  ca:	86 bf       	out	0x36, r24	; 54
  cc:	06 b6       	in	r0, 0x36	; 54
  ce:	07 fe       	sbrs	r0, 7
  d0:	fd cf       	rjmp	.-6      	; 0xcc <I2C_SendByte+0x6>
  d2:	81 b1       	in	r24, 0x01	; 1
  d4:	08 95       	ret

000000d6 <I2C_ReciveData_NACK>:
  d6:	84 e8       	ldi	r24, 0x84	; 132
  d8:	86 bf       	out	0x36, r24	; 54
  da:	06 b6       	in	r0, 0x36	; 54
  dc:	07 fe       	sbrs	r0, 7
  de:	fd cf       	rjmp	.-6      	; 0xda <I2C_ReciveData_NACK+0x4>
  e0:	81 b1       	in	r24, 0x01	; 1
  e2:	83 b1       	in	r24, 0x03	; 3
  e4:	08 95       	ret

000000e6 <I2C_ReciveData_ACK>:
  e6:	84 ec       	ldi	r24, 0xC4	; 196
  e8:	86 bf       	out	0x36, r24	; 54
  ea:	06 b6       	in	r0, 0x36	; 54
  ec:	07 fe       	sbrs	r0, 7
  ee:	fd cf       	rjmp	.-6      	; 0xea <I2C_ReciveData_ACK+0x4>
  f0:	81 b1       	in	r24, 0x01	; 1
  f2:	83 b1       	in	r24, 0x03	; 3
  f4:	08 95       	ret

000000f6 <I2C_ERROR>:
  f6:	08 95       	ret

000000f8 <USART_Transmit>:
  f8:	5d 9b       	sbis	0x0b, 5	; 11
  fa:	fe cf       	rjmp	.-4      	; 0xf8 <USART_Transmit>
  fc:	8c b9       	out	0x0c, r24	; 12
  fe:	08 95       	ret

00000100 <USART_Flush>:
 100:	01 c0       	rjmp	.+2      	; 0x104 <USART_Flush+0x4>
 102:	8c b1       	in	r24, 0x0c	; 12
 104:	5f 99       	sbic	0x0b, 7	; 11
 106:	fd cf       	rjmp	.-6      	; 0x102 <USART_Flush+0x2>
 108:	08 95       	ret

0000010a <USART_Init>:
 10a:	90 bd       	out	0x20, r25	; 32
 10c:	89 b9       	out	0x09, r24	; 9
 10e:	88 e1       	ldi	r24, 0x18	; 24
 110:	8a b9       	out	0x0a, r24	; 10
 112:	8e e8       	ldi	r24, 0x8E	; 142
 114:	80 bd       	out	0x20, r24	; 32
 116:	08 95       	ret

00000118 <USART_Transmit_Int>:
 118:	5d 9b       	sbis	0x0b, 5	; 11
 11a:	fe cf       	rjmp	.-4      	; 0x118 <USART_Transmit_Int>
 11c:	50 98       	cbi	0x0a, 0	; 10
 11e:	90 fd       	sbrc	r25, 0
 120:	50 9a       	sbi	0x0a, 0	; 10
 122:	8c b9       	out	0x0c, r24	; 12
 124:	08 95       	ret

00000126 <USART_Receive>:
 126:	5f 9b       	sbis	0x0b, 7	; 11
 128:	fe cf       	rjmp	.-4      	; 0x126 <USART_Receive>
 12a:	8c b1       	in	r24, 0x0c	; 12
 12c:	08 95       	ret

0000012e <Send_String>:
 12e:	20 e0       	ldi	r18, 0x00	; 0
 130:	30 e0       	ldi	r19, 0x00	; 0
 132:	09 c0       	rjmp	.+18     	; 0x146 <Send_String+0x18>
 134:	fc 01       	movw	r30, r24
 136:	e2 0f       	add	r30, r18
 138:	f3 1f       	adc	r31, r19
 13a:	e0 81       	ld	r30, Z
 13c:	5d 9b       	sbis	0x0b, 5	; 11
 13e:	fe cf       	rjmp	.-4      	; 0x13c <Send_String+0xe>
 140:	ec b9       	out	0x0c, r30	; 12
 142:	2f 5f       	subi	r18, 0xFF	; 255
 144:	3f 4f       	sbci	r19, 0xFF	; 255
 146:	26 17       	cp	r18, r22
 148:	37 07       	cpc	r19, r23
 14a:	a0 f3       	brcs	.-24     	; 0x134 <Send_String+0x6>
 14c:	08 95       	ret

0000014e <i2c_init>:
 14e:	8c e0       	ldi	r24, 0x0C	; 12
 150:	80 b9       	out	0x00, r24	; 0
 152:	08 95       	ret

00000154 <i2c_start>:
 154:	98 2f       	mov	r25, r24
 156:	16 be       	out	0x36, r1	; 54
 158:	84 ea       	ldi	r24, 0xA4	; 164
 15a:	86 bf       	out	0x36, r24	; 54
 15c:	06 b6       	in	r0, 0x36	; 54
 15e:	07 fe       	sbrs	r0, 7
 160:	fd cf       	rjmp	.-6      	; 0x15c <i2c_start+0x8>
 162:	81 b1       	in	r24, 0x01	; 1
 164:	88 7f       	andi	r24, 0xF8	; 248
 166:	88 30       	cpi	r24, 0x08	; 8
 168:	11 f0       	breq	.+4      	; 0x16e <i2c_start+0x1a>
 16a:	81 e0       	ldi	r24, 0x01	; 1
 16c:	08 95       	ret
 16e:	93 b9       	out	0x03, r25	; 3
 170:	84 e8       	ldi	r24, 0x84	; 132
 172:	86 bf       	out	0x36, r24	; 54
 174:	06 b6       	in	r0, 0x36	; 54
 176:	07 fe       	sbrs	r0, 7
 178:	fd cf       	rjmp	.-6      	; 0x174 <i2c_start+0x20>
 17a:	91 b1       	in	r25, 0x01	; 1
 17c:	98 7f       	andi	r25, 0xF8	; 248
 17e:	98 31       	cpi	r25, 0x18	; 24
 180:	11 f4       	brne	.+4      	; 0x186 <i2c_start+0x32>
 182:	80 e0       	ldi	r24, 0x00	; 0
 184:	08 95       	ret
 186:	80 e0       	ldi	r24, 0x00	; 0
 188:	90 34       	cpi	r25, 0x40	; 64
 18a:	09 f0       	breq	.+2      	; 0x18e <i2c_start+0x3a>
 18c:	81 e0       	ldi	r24, 0x01	; 1
 18e:	08 95       	ret

00000190 <i2c_write>:
 190:	83 b9       	out	0x03, r24	; 3
 192:	84 e8       	ldi	r24, 0x84	; 132
 194:	86 bf       	out	0x36, r24	; 54
 196:	06 b6       	in	r0, 0x36	; 54
 198:	07 fe       	sbrs	r0, 7
 19a:	fd cf       	rjmp	.-6      	; 0x196 <i2c_write+0x6>
 19c:	81 b1       	in	r24, 0x01	; 1
 19e:	90 e0       	ldi	r25, 0x00	; 0
 1a0:	88 7f       	andi	r24, 0xF8	; 248
 1a2:	88 32       	cpi	r24, 0x28	; 40
 1a4:	09 f0       	breq	.+2      	; 0x1a8 <i2c_write+0x18>
 1a6:	91 e0       	ldi	r25, 0x01	; 1
 1a8:	89 2f       	mov	r24, r25
 1aa:	08 95       	ret

000001ac <i2c_read_ack>:
 1ac:	84 ec       	ldi	r24, 0xC4	; 196
 1ae:	86 bf       	out	0x36, r24	; 54
 1b0:	06 b6       	in	r0, 0x36	; 54
 1b2:	07 fe       	sbrs	r0, 7
 1b4:	fd cf       	rjmp	.-6      	; 0x1b0 <i2c_read_ack+0x4>
 1b6:	83 b1       	in	r24, 0x03	; 3
 1b8:	08 95       	ret

000001ba <i2c_read_nack>:
 1ba:	84 e8       	ldi	r24, 0x84	; 132
 1bc:	86 bf       	out	0x36, r24	; 54
 1be:	06 b6       	in	r0, 0x36	; 54
 1c0:	07 fe       	sbrs	r0, 7
 1c2:	fd cf       	rjmp	.-6      	; 0x1be <i2c_read_nack+0x4>
 1c4:	83 b1       	in	r24, 0x03	; 3
 1c6:	08 95       	ret

000001c8 <i2c_transmit>:
 1c8:	ef 92       	push	r14
 1ca:	ff 92       	push	r15
 1cc:	0f 93       	push	r16
 1ce:	1f 93       	push	r17
 1d0:	cf 93       	push	r28
 1d2:	df 93       	push	r29
 1d4:	7b 01       	movw	r14, r22
 1d6:	8a 01       	movw	r16, r20
 1d8:	bd df       	rcall	.-134    	; 0x154 <i2c_start>
 1da:	88 23       	and	r24, r24
 1dc:	91 f4       	brne	.+36     	; 0x202 <i2c_transmit+0x3a>
 1de:	c0 e0       	ldi	r28, 0x00	; 0
 1e0:	d0 e0       	ldi	r29, 0x00	; 0
 1e2:	08 c0       	rjmp	.+16     	; 0x1f4 <i2c_transmit+0x2c>
 1e4:	f7 01       	movw	r30, r14
 1e6:	ec 0f       	add	r30, r28
 1e8:	fd 1f       	adc	r31, r29
 1ea:	80 81       	ld	r24, Z
 1ec:	d1 df       	rcall	.-94     	; 0x190 <i2c_write>
 1ee:	88 23       	and	r24, r24
 1f0:	41 f4       	brne	.+16     	; 0x202 <i2c_transmit+0x3a>
 1f2:	21 96       	adiw	r28, 0x01	; 1
 1f4:	c0 17       	cp	r28, r16
 1f6:	d1 07       	cpc	r29, r17
 1f8:	a8 f3       	brcs	.-22     	; 0x1e4 <i2c_transmit+0x1c>
 1fa:	84 e9       	ldi	r24, 0x94	; 148
 1fc:	86 bf       	out	0x36, r24	; 54
 1fe:	80 e0       	ldi	r24, 0x00	; 0
 200:	01 c0       	rjmp	.+2      	; 0x204 <i2c_transmit+0x3c>
 202:	81 e0       	ldi	r24, 0x01	; 1
 204:	df 91       	pop	r29
 206:	cf 91       	pop	r28
 208:	1f 91       	pop	r17
 20a:	0f 91       	pop	r16
 20c:	ff 90       	pop	r15
 20e:	ef 90       	pop	r14
 210:	08 95       	ret

00000212 <i2c_receive>:
 212:	0f 93       	push	r16
 214:	1f 93       	push	r17
 216:	cf 93       	push	r28
 218:	df 93       	push	r29
 21a:	eb 01       	movw	r28, r22
 21c:	8a 01       	movw	r16, r20
 21e:	9a df       	rcall	.-204    	; 0x154 <i2c_start>
 220:	88 23       	and	r24, r24
 222:	11 f0       	breq	.+4      	; 0x228 <i2c_receive+0x16>
 224:	81 e0       	ldi	r24, 0x01	; 1
 226:	22 c0       	rjmp	.+68     	; 0x26c <i2c_receive+0x5a>
 228:	20 e0       	ldi	r18, 0x00	; 0
 22a:	30 e0       	ldi	r19, 0x00	; 0
 22c:	a8 01       	movw	r20, r16
 22e:	41 50       	subi	r20, 0x01	; 1
 230:	50 40       	sbci	r21, 0x00	; 0
 232:	94 ec       	ldi	r25, 0xC4	; 196
 234:	0b c0       	rjmp	.+22     	; 0x24c <i2c_receive+0x3a>
 236:	96 bf       	out	0x36, r25	; 54
 238:	06 b6       	in	r0, 0x36	; 54
 23a:	07 fe       	sbrs	r0, 7
 23c:	fd cf       	rjmp	.-6      	; 0x238 <i2c_receive+0x26>
 23e:	83 b1       	in	r24, 0x03	; 3
 240:	fe 01       	movw	r30, r28
 242:	e2 0f       	add	r30, r18
 244:	f3 1f       	adc	r31, r19
 246:	80 83       	st	Z, r24
 248:	2f 5f       	subi	r18, 0xFF	; 255
 24a:	3f 4f       	sbci	r19, 0xFF	; 255
 24c:	24 17       	cp	r18, r20
 24e:	35 07       	cpc	r19, r21
 250:	90 f3       	brcs	.-28     	; 0x236 <i2c_receive+0x24>
 252:	84 e8       	ldi	r24, 0x84	; 132
 254:	86 bf       	out	0x36, r24	; 54
 256:	06 b6       	in	r0, 0x36	; 54
 258:	07 fe       	sbrs	r0, 7
 25a:	fd cf       	rjmp	.-6      	; 0x256 <i2c_receive+0x44>
 25c:	83 b1       	in	r24, 0x03	; 3
 25e:	c0 0f       	add	r28, r16
 260:	d1 1f       	adc	r29, r17
 262:	21 97       	sbiw	r28, 0x01	; 1
 264:	88 83       	st	Y, r24
 266:	84 e9       	ldi	r24, 0x94	; 148
 268:	86 bf       	out	0x36, r24	; 54
 26a:	80 e0       	ldi	r24, 0x00	; 0
 26c:	df 91       	pop	r29
 26e:	cf 91       	pop	r28
 270:	1f 91       	pop	r17
 272:	0f 91       	pop	r16
 274:	08 95       	ret

00000276 <i2c_stop>:
 276:	84 e9       	ldi	r24, 0x94	; 148
 278:	86 bf       	out	0x36, r24	; 54
 27a:	08 95       	ret

0000027c <main>:
 27c:	82 e0       	ldi	r24, 0x02	; 2
 27e:	87 bb       	out	0x17, r24	; 23
 280:	88 bb       	out	0x18, r24	; 24
 282:	89 e1       	ldi	r24, 0x19	; 25
 284:	90 e0       	ldi	r25, 0x00	; 0
 286:	41 df       	rcall	.-382    	; 0x10a <USART_Init>
 288:	06 df       	rcall	.-500    	; 0x96 <I2C_Init>
 28a:	0b df       	rcall	.-490    	; 0xa2 <I2C_Start>
 28c:	8e ee       	ldi	r24, 0xEE	; 238
 28e:	13 df       	rcall	.-474    	; 0xb6 <I2C_SendAddr>
 290:	ff cf       	rjmp	.-2      	; 0x290 <main+0x14>

00000292 <__divmodsi4>:
 292:	97 fb       	bst	r25, 7
 294:	09 2e       	mov	r0, r25
 296:	05 26       	eor	r0, r21
 298:	0e d0       	rcall	.+28     	; 0x2b6 <__divmodsi4_neg1>
 29a:	57 fd       	sbrc	r21, 7
 29c:	04 d0       	rcall	.+8      	; 0x2a6 <__divmodsi4_neg2>
 29e:	14 d0       	rcall	.+40     	; 0x2c8 <__udivmodsi4>
 2a0:	0a d0       	rcall	.+20     	; 0x2b6 <__divmodsi4_neg1>
 2a2:	00 1c       	adc	r0, r0
 2a4:	38 f4       	brcc	.+14     	; 0x2b4 <__divmodsi4_exit>

000002a6 <__divmodsi4_neg2>:
 2a6:	50 95       	com	r21
 2a8:	40 95       	com	r20
 2aa:	30 95       	com	r19
 2ac:	21 95       	neg	r18
 2ae:	3f 4f       	sbci	r19, 0xFF	; 255
 2b0:	4f 4f       	sbci	r20, 0xFF	; 255
 2b2:	5f 4f       	sbci	r21, 0xFF	; 255

000002b4 <__divmodsi4_exit>:
 2b4:	08 95       	ret

000002b6 <__divmodsi4_neg1>:
 2b6:	f6 f7       	brtc	.-4      	; 0x2b4 <__divmodsi4_exit>
 2b8:	90 95       	com	r25
 2ba:	80 95       	com	r24
 2bc:	70 95       	com	r23
 2be:	61 95       	neg	r22
 2c0:	7f 4f       	sbci	r23, 0xFF	; 255
 2c2:	8f 4f       	sbci	r24, 0xFF	; 255
 2c4:	9f 4f       	sbci	r25, 0xFF	; 255
 2c6:	08 95       	ret

000002c8 <__udivmodsi4>:
 2c8:	a1 e2       	ldi	r26, 0x21	; 33
 2ca:	1a 2e       	mov	r1, r26
 2cc:	aa 1b       	sub	r26, r26
 2ce:	bb 1b       	sub	r27, r27
 2d0:	fd 01       	movw	r30, r26
 2d2:	0d c0       	rjmp	.+26     	; 0x2ee <__udivmodsi4_ep>

000002d4 <__udivmodsi4_loop>:
 2d4:	aa 1f       	adc	r26, r26
 2d6:	bb 1f       	adc	r27, r27
 2d8:	ee 1f       	adc	r30, r30
 2da:	ff 1f       	adc	r31, r31
 2dc:	a2 17       	cp	r26, r18
 2de:	b3 07       	cpc	r27, r19
 2e0:	e4 07       	cpc	r30, r20
 2e2:	f5 07       	cpc	r31, r21
 2e4:	20 f0       	brcs	.+8      	; 0x2ee <__udivmodsi4_ep>
 2e6:	a2 1b       	sub	r26, r18
 2e8:	b3 0b       	sbc	r27, r19
 2ea:	e4 0b       	sbc	r30, r20
 2ec:	f5 0b       	sbc	r31, r21

000002ee <__udivmodsi4_ep>:
 2ee:	66 1f       	adc	r22, r22
 2f0:	77 1f       	adc	r23, r23
 2f2:	88 1f       	adc	r24, r24
 2f4:	99 1f       	adc	r25, r25
 2f6:	1a 94       	dec	r1
 2f8:	69 f7       	brne	.-38     	; 0x2d4 <__udivmodsi4_loop>
 2fa:	60 95       	com	r22
 2fc:	70 95       	com	r23
 2fe:	80 95       	com	r24
 300:	90 95       	com	r25
 302:	9b 01       	movw	r18, r22
 304:	ac 01       	movw	r20, r24
 306:	bd 01       	movw	r22, r26
 308:	cf 01       	movw	r24, r30
 30a:	08 95       	ret

0000030c <_exit>:
 30c:	f8 94       	cli

0000030e <__stop_program>:
 30e:	ff cf       	rjmp	.-2      	; 0x30e <__stop_program>
